SF:/Users/hans/dev/rust/time-tracker/src/cli/mod.rs
FN:98,_RNCNvNvMNtCs32R6rcQHX2H_12time_tracker3cliNtB6_4Args14context_filter10parse_tags0B8_
FN:100,_RNCNvNvMNtCs32R6rcQHX2H_12time_tracker3cliNtB6_4Args14context_filter10parse_tagss0_0B8_
FN:99,_RNCNvNvMNtCs32R6rcQHX2H_12time_tracker3cliNtB6_4Args14context_filter10parse_tagss_0B8_
FN:94,_RNCNvNvMNtCs32R6rcQHX2H_12time_tracker3cliNtB6_4Args14context_filter18parse_project_tags0B8_
FN:104,_RNCNvNvMNtCs32R6rcQHX2H_12time_tracker3cliNtB6_4Args14context_filter9to_filter0B8_
FN:16,_RNCNvXs1_NtCs32R6rcQHX2H_12time_tracker3cliNtB7_4ArgsNtNtCsbBzYE6RVcRv_12clap_builder6derive14FromArgMatches20from_arg_matches_mut0B9_
FN:24,_RNCNvXs1_NtCs32R6rcQHX2H_12time_tracker3cliNtB7_4ArgsNtNtCsbBzYE6RVcRv_12clap_builder6derive14FromArgMatches20from_arg_matches_muts0_0B9_
FN:28,_RNCNvXs1_NtCs32R6rcQHX2H_12time_tracker3cliNtB7_4ArgsNtNtCsbBzYE6RVcRv_12clap_builder6derive14FromArgMatches20from_arg_matches_muts1_0B9_
FN:20,_RNCNvXs1_NtCs32R6rcQHX2H_12time_tracker3cliNtB7_4ArgsNtNtCsbBzYE6RVcRv_12clap_builder6derive14FromArgMatches20from_arg_matches_muts_0B9_
FN:16,_RNCNvXs1_NtCs32R6rcQHX2H_12time_tracker3cliNtB7_4ArgsNtNtCsbBzYE6RVcRv_12clap_builder6derive14FromArgMatches27update_from_arg_matches_mut0B9_
FN:24,_RNCNvXs1_NtCs32R6rcQHX2H_12time_tracker3cliNtB7_4ArgsNtNtCsbBzYE6RVcRv_12clap_builder6derive14FromArgMatches27update_from_arg_matches_muts0_0B9_
FN:28,_RNCNvXs1_NtCs32R6rcQHX2H_12time_tracker3cliNtB7_4ArgsNtNtCsbBzYE6RVcRv_12clap_builder6derive14FromArgMatches27update_from_arg_matches_muts1_0B9_
FN:20,_RNCNvXs1_NtCs32R6rcQHX2H_12time_tracker3cliNtB7_4ArgsNtNtCsbBzYE6RVcRv_12clap_builder6derive14FromArgMatches27update_from_arg_matches_muts_0B9_
FN:125,_RNvMNtCs32R6rcQHX2H_12time_tracker3cliNtB2_4Args11from_period
FN:77,_RNvMNtCs32R6rcQHX2H_12time_tracker3cliNtB2_4Args12exclude_tags
FN:92,_RNvMNtCs32R6rcQHX2H_12time_tracker3cliNtB2_4Args14context_filter
FN:87,_RNvMNtCs32R6rcQHX2H_12time_tracker3cliNtB2_4Args15include_details
FN:137,_RNvMNtCs32R6rcQHX2H_12time_tracker3cliNtB2_4Args5limit
FN:59,_RNvMNtCs32R6rcQHX2H_12time_tracker3cliNtB2_4Args5parse
FN:117,_RNvMNtCs32R6rcQHX2H_12time_tracker3cliNtB2_4Args6period
FN:65,_RNvMNtCs32R6rcQHX2H_12time_tracker3cliNtB2_4Args8validate
FN:146,_RNvMNtCs32R6rcQHX2H_12time_tracker3cliNtB2_4Args9formatter
FN:132,_RNvMNtCs32R6rcQHX2H_12time_tracker3cliNtB2_4Args9from_date
FN:97,_RNvNvMNtCs32R6rcQHX2H_12time_tracker3cliNtB4_4Args14context_filter10parse_tags
FN:93,_RNvNvMNtCs32R6rcQHX2H_12time_tracker3cliNtB4_4Args14context_filter18parse_project_tags
FN:103,_RNvNvMNtCs32R6rcQHX2H_12time_tracker3cliNtB4_4Args14context_filter9to_filter
FN:98,_RNCNvNvMNtCseOvZ2GYdjRc_12time_tracker3cliNtB6_4Args14context_filter10parse_tags0B8_
FN:100,_RNCNvNvMNtCseOvZ2GYdjRc_12time_tracker3cliNtB6_4Args14context_filter10parse_tagss0_0B8_
FN:99,_RNCNvNvMNtCseOvZ2GYdjRc_12time_tracker3cliNtB6_4Args14context_filter10parse_tagss_0B8_
FN:94,_RNCNvNvMNtCseOvZ2GYdjRc_12time_tracker3cliNtB6_4Args14context_filter18parse_project_tags0B8_
FN:104,_RNCNvNvMNtCseOvZ2GYdjRc_12time_tracker3cliNtB6_4Args14context_filter9to_filter0B8_
FN:16,_RNCNvXs1_NtCseOvZ2GYdjRc_12time_tracker3cliNtB7_4ArgsNtNtCsbBzYE6RVcRv_12clap_builder6derive14FromArgMatches20from_arg_matches_mut0B9_
FN:24,_RNCNvXs1_NtCseOvZ2GYdjRc_12time_tracker3cliNtB7_4ArgsNtNtCsbBzYE6RVcRv_12clap_builder6derive14FromArgMatches20from_arg_matches_muts0_0B9_
FN:28,_RNCNvXs1_NtCseOvZ2GYdjRc_12time_tracker3cliNtB7_4ArgsNtNtCsbBzYE6RVcRv_12clap_builder6derive14FromArgMatches20from_arg_matches_muts1_0B9_
FN:20,_RNCNvXs1_NtCseOvZ2GYdjRc_12time_tracker3cliNtB7_4ArgsNtNtCsbBzYE6RVcRv_12clap_builder6derive14FromArgMatches20from_arg_matches_muts_0B9_
FN:16,_RNCNvXs1_NtCseOvZ2GYdjRc_12time_tracker3cliNtB7_4ArgsNtNtCsbBzYE6RVcRv_12clap_builder6derive14FromArgMatches27update_from_arg_matches_mut0B9_
FN:24,_RNCNvXs1_NtCseOvZ2GYdjRc_12time_tracker3cliNtB7_4ArgsNtNtCsbBzYE6RVcRv_12clap_builder6derive14FromArgMatches27update_from_arg_matches_muts0_0B9_
FN:28,_RNCNvXs1_NtCseOvZ2GYdjRc_12time_tracker3cliNtB7_4ArgsNtNtCsbBzYE6RVcRv_12clap_builder6derive14FromArgMatches27update_from_arg_matches_muts1_0B9_
FN:20,_RNCNvXs1_NtCseOvZ2GYdjRc_12time_tracker3cliNtB7_4ArgsNtNtCsbBzYE6RVcRv_12clap_builder6derive14FromArgMatches27update_from_arg_matches_muts_0B9_
FN:125,_RNvMNtCseOvZ2GYdjRc_12time_tracker3cliNtB2_4Args11from_period
FN:77,_RNvMNtCseOvZ2GYdjRc_12time_tracker3cliNtB2_4Args12exclude_tags
FN:92,_RNvMNtCseOvZ2GYdjRc_12time_tracker3cliNtB2_4Args14context_filter
FN:87,_RNvMNtCseOvZ2GYdjRc_12time_tracker3cliNtB2_4Args15include_details
FN:137,_RNvMNtCseOvZ2GYdjRc_12time_tracker3cliNtB2_4Args5limit
FN:59,_RNvMNtCseOvZ2GYdjRc_12time_tracker3cliNtB2_4Args5parse
FN:117,_RNvMNtCseOvZ2GYdjRc_12time_tracker3cliNtB2_4Args6period
FN:65,_RNvMNtCseOvZ2GYdjRc_12time_tracker3cliNtB2_4Args8validate
FN:146,_RNvMNtCseOvZ2GYdjRc_12time_tracker3cliNtB2_4Args9formatter
FN:132,_RNvMNtCseOvZ2GYdjRc_12time_tracker3cliNtB2_4Args9from_date
FN:97,_RNvNvMNtCseOvZ2GYdjRc_12time_tracker3cliNtB4_4Args14context_filter10parse_tags
FN:93,_RNvNvMNtCseOvZ2GYdjRc_12time_tracker3cliNtB4_4Args14context_filter18parse_project_tags
FN:103,_RNvNvMNtCseOvZ2GYdjRc_12time_tracker3cliNtB4_4Args14context_filter9to_filter
FNDA:0,_RNCNvNvMNtCs32R6rcQHX2H_12time_tracker3cliNtB6_4Args14context_filter10parse_tags0B8_
FNDA:0,_RNCNvNvMNtCs32R6rcQHX2H_12time_tracker3cliNtB6_4Args14context_filter10parse_tagss0_0B8_
FNDA:0,_RNCNvNvMNtCs32R6rcQHX2H_12time_tracker3cliNtB6_4Args14context_filter10parse_tagss_0B8_
FNDA:0,_RNCNvNvMNtCs32R6rcQHX2H_12time_tracker3cliNtB6_4Args14context_filter18parse_project_tags0B8_
FNDA:0,_RNCNvNvMNtCs32R6rcQHX2H_12time_tracker3cliNtB6_4Args14context_filter9to_filter0B8_
FNDA:0,_RNCNvXs1_NtCs32R6rcQHX2H_12time_tracker3cliNtB7_4ArgsNtNtCsbBzYE6RVcRv_12clap_builder6derive14FromArgMatches20from_arg_matches_mut0B9_
FNDA:0,_RNCNvXs1_NtCs32R6rcQHX2H_12time_tracker3cliNtB7_4ArgsNtNtCsbBzYE6RVcRv_12clap_builder6derive14FromArgMatches20from_arg_matches_muts0_0B9_
FNDA:0,_RNCNvXs1_NtCs32R6rcQHX2H_12time_tracker3cliNtB7_4ArgsNtNtCsbBzYE6RVcRv_12clap_builder6derive14FromArgMatches20from_arg_matches_muts1_0B9_
FNDA:0,_RNCNvXs1_NtCs32R6rcQHX2H_12time_tracker3cliNtB7_4ArgsNtNtCsbBzYE6RVcRv_12clap_builder6derive14FromArgMatches20from_arg_matches_muts_0B9_
FNDA:0,_RNCNvXs1_NtCs32R6rcQHX2H_12time_tracker3cliNtB7_4ArgsNtNtCsbBzYE6RVcRv_12clap_builder6derive14FromArgMatches27update_from_arg_matches_mut0B9_
FNDA:0,_RNCNvXs1_NtCs32R6rcQHX2H_12time_tracker3cliNtB7_4ArgsNtNtCsbBzYE6RVcRv_12clap_builder6derive14FromArgMatches27update_from_arg_matches_muts0_0B9_
FNDA:0,_RNCNvXs1_NtCs32R6rcQHX2H_12time_tracker3cliNtB7_4ArgsNtNtCsbBzYE6RVcRv_12clap_builder6derive14FromArgMatches27update_from_arg_matches_muts1_0B9_
FNDA:0,_RNCNvXs1_NtCs32R6rcQHX2H_12time_tracker3cliNtB7_4ArgsNtNtCsbBzYE6RVcRv_12clap_builder6derive14FromArgMatches27update_from_arg_matches_muts_0B9_
FNDA:0,_RNvMNtCs32R6rcQHX2H_12time_tracker3cliNtB2_4Args11from_period
FNDA:0,_RNvMNtCs32R6rcQHX2H_12time_tracker3cliNtB2_4Args12exclude_tags
FNDA:0,_RNvMNtCs32R6rcQHX2H_12time_tracker3cliNtB2_4Args14context_filter
FNDA:0,_RNvMNtCs32R6rcQHX2H_12time_tracker3cliNtB2_4Args15include_details
FNDA:0,_RNvMNtCs32R6rcQHX2H_12time_tracker3cliNtB2_4Args5limit
FNDA:0,_RNvMNtCs32R6rcQHX2H_12time_tracker3cliNtB2_4Args5parse
FNDA:0,_RNvMNtCs32R6rcQHX2H_12time_tracker3cliNtB2_4Args6period
FNDA:0,_RNvMNtCs32R6rcQHX2H_12time_tracker3cliNtB2_4Args8validate
FNDA:0,_RNvMNtCs32R6rcQHX2H_12time_tracker3cliNtB2_4Args9formatter
FNDA:0,_RNvMNtCs32R6rcQHX2H_12time_tracker3cliNtB2_4Args9from_date
FNDA:0,_RNvNvMNtCs32R6rcQHX2H_12time_tracker3cliNtB4_4Args14context_filter10parse_tags
FNDA:0,_RNvNvMNtCs32R6rcQHX2H_12time_tracker3cliNtB4_4Args14context_filter18parse_project_tags
FNDA:0,_RNvNvMNtCs32R6rcQHX2H_12time_tracker3cliNtB4_4Args14context_filter9to_filter
FNDA:9,_RNCNvNvMNtCseOvZ2GYdjRc_12time_tracker3cliNtB6_4Args14context_filter10parse_tags0B8_
FNDA:8,_RNCNvNvMNtCseOvZ2GYdjRc_12time_tracker3cliNtB6_4Args14context_filter10parse_tagss0_0B8_
FNDA:108,_RNCNvNvMNtCseOvZ2GYdjRc_12time_tracker3cliNtB6_4Args14context_filter10parse_tagss_0B8_
FNDA:7,_RNCNvNvMNtCseOvZ2GYdjRc_12time_tracker3cliNtB6_4Args14context_filter18parse_project_tags0B8_
FNDA:15,_RNCNvNvMNtCseOvZ2GYdjRc_12time_tracker3cliNtB6_4Args14context_filter9to_filter0B8_
FNDA:0,_RNCNvXs1_NtCseOvZ2GYdjRc_12time_tracker3cliNtB7_4ArgsNtNtCsbBzYE6RVcRv_12clap_builder6derive14FromArgMatches20from_arg_matches_mut0B9_
FNDA:0,_RNCNvXs1_NtCseOvZ2GYdjRc_12time_tracker3cliNtB7_4ArgsNtNtCsbBzYE6RVcRv_12clap_builder6derive14FromArgMatches20from_arg_matches_muts0_0B9_
FNDA:0,_RNCNvXs1_NtCseOvZ2GYdjRc_12time_tracker3cliNtB7_4ArgsNtNtCsbBzYE6RVcRv_12clap_builder6derive14FromArgMatches20from_arg_matches_muts1_0B9_
FNDA:0,_RNCNvXs1_NtCseOvZ2GYdjRc_12time_tracker3cliNtB7_4ArgsNtNtCsbBzYE6RVcRv_12clap_builder6derive14FromArgMatches20from_arg_matches_muts_0B9_
FNDA:0,_RNCNvXs1_NtCseOvZ2GYdjRc_12time_tracker3cliNtB7_4ArgsNtNtCsbBzYE6RVcRv_12clap_builder6derive14FromArgMatches27update_from_arg_matches_mut0B9_
FNDA:0,_RNCNvXs1_NtCseOvZ2GYdjRc_12time_tracker3cliNtB7_4ArgsNtNtCsbBzYE6RVcRv_12clap_builder6derive14FromArgMatches27update_from_arg_matches_muts0_0B9_
FNDA:0,_RNCNvXs1_NtCseOvZ2GYdjRc_12time_tracker3cliNtB7_4ArgsNtNtCsbBzYE6RVcRv_12clap_builder6derive14FromArgMatches27update_from_arg_matches_muts1_0B9_
FNDA:0,_RNCNvXs1_NtCseOvZ2GYdjRc_12time_tracker3cliNtB7_4ArgsNtNtCsbBzYE6RVcRv_12clap_builder6derive14FromArgMatches27update_from_arg_matches_muts_0B9_
FNDA:116,_RNvMNtCseOvZ2GYdjRc_12time_tracker3cliNtB2_4Args11from_period
FNDA:116,_RNvMNtCseOvZ2GYdjRc_12time_tracker3cliNtB2_4Args12exclude_tags
FNDA:116,_RNvMNtCseOvZ2GYdjRc_12time_tracker3cliNtB2_4Args14context_filter
FNDA:100,_RNvMNtCseOvZ2GYdjRc_12time_tracker3cliNtB2_4Args15include_details
FNDA:100,_RNvMNtCseOvZ2GYdjRc_12time_tracker3cliNtB2_4Args5limit
FNDA:118,_RNvMNtCseOvZ2GYdjRc_12time_tracker3cliNtB2_4Args5parse
FNDA:116,_RNvMNtCseOvZ2GYdjRc_12time_tracker3cliNtB2_4Args6period
FNDA:117,_RNvMNtCseOvZ2GYdjRc_12time_tracker3cliNtB2_4Args8validate
FNDA:100,_RNvMNtCseOvZ2GYdjRc_12time_tracker3cliNtB2_4Args9formatter
FNDA:58,_RNvMNtCseOvZ2GYdjRc_12time_tracker3cliNtB2_4Args9from_date
FNDA:116,_RNvNvMNtCseOvZ2GYdjRc_12time_tracker3cliNtB4_4Args14context_filter10parse_tags
FNDA:116,_RNvNvMNtCseOvZ2GYdjRc_12time_tracker3cliNtB4_4Args14context_filter18parse_project_tags
FNDA:116,_RNvNvMNtCseOvZ2GYdjRc_12time_tracker3cliNtB4_4Args14context_filter9to_filter
FNF:22
FNH:18
DA:16,0
DA:20,0
DA:24,0
DA:28,0
DA:59,118
DA:60,118
DA:61,118
DA:62,117
DA:63,118
DA:65,117
DA:66,117
DA:67,117
DA:68,1
DA:69,116
DA:70,116
DA:71,116
DA:72,116
DA:73,116
DA:74,117
DA:77,116
DA:78,116
DA:79,4
DA:80,4
DA:81,4
DA:83,112
DA:85,116
DA:87,100
DA:88,100
DA:89,100
DA:92,116
DA:93,116
DA:94,116
DA:95,116
DA:97,116
DA:98,116
DA:99,116
DA:100,116
DA:101,116
DA:102,116
DA:103,116
DA:104,116
DA:105,116
DA:107,116
DA:108,116
DA:109,116
DA:110,116
DA:117,116
DA:118,116
DA:119,46
DA:120,12
DA:121,58
DA:123,116
DA:125,116
DA:126,116
DA:127,58
DA:128,58
DA:130,116
DA:132,58
DA:133,58
DA:134,58
DA:137,100
DA:138,100
DA:139,3
DA:141,97
DA:143,100
DA:146,100
DA:147,100
DA:148,100
BRF:0
BRH:0
LF:73
LH:69
end_of_record
SF:/Users/hans/dev/rust/time-tracker/src/domain/dates/range.rs
FN:68,_RNCNCNCNvMNtNtNtCs32R6rcQHX2H_12time_tracker6domain5dates5rangeNtB8_15PeriodRequested15try_parse_month000Be_
FN:112,_RNCNCNCNvMNtNtNtCs32R6rcQHX2H_12time_tracker6domain5dates5rangeNtB8_15PeriodRequested20try_parse_week_value000Be_
FN:97,_RNCNCNCNvMNtNtNtCs32R6rcQHX2H_12time_tracker6domain5dates5rangeNtB8_15PeriodRequested21try_parse_month_value000Be_
FN:67,_RNCNCNvMNtNtNtCs32R6rcQHX2H_12time_tracker6domain5dates5rangeNtB6_15PeriodRequested15try_parse_month00Bc_
FN:111,_RNCNCNvMNtNtNtCs32R6rcQHX2H_12time_tracker6domain5dates5rangeNtB6_15PeriodRequested20try_parse_week_value00Bc_
FN:146,_RNCNCNvMNtNtNtCs32R6rcQHX2H_12time_tracker6domain5dates5rangeNtB6_15PeriodRequested20try_parse_year_value00Bc_
FN:96,_RNCNCNvMNtNtNtCs32R6rcQHX2H_12time_tracker6domain5dates5rangeNtB6_15PeriodRequested21try_parse_month_value00Bc_
FN:34,_RNCNvMNtNtNtCs32R6rcQHX2H_12time_tracker6domain5dates5rangeNtB4_15PeriodRequested14from_from_date0Ba_
FN:57,_RNCNvMNtNtNtCs32R6rcQHX2H_12time_tracker6domain5dates5rangeNtB4_15PeriodRequested15date_from_value0Ba_
FN:59,_RNCNvMNtNtNtCs32R6rcQHX2H_12time_tracker6domain5dates5rangeNtB4_15PeriodRequested15date_from_values0_0Ba_
FN:60,_RNCNvMNtNtNtCs32R6rcQHX2H_12time_tracker6domain5dates5rangeNtB4_15PeriodRequested15date_from_values1_0Ba_
FN:58,_RNCNvMNtNtNtCs32R6rcQHX2H_12time_tracker6domain5dates5rangeNtB4_15PeriodRequested15date_from_values_0Ba_
FN:66,_RNCNvMNtNtNtCs32R6rcQHX2H_12time_tracker6domain5dates5rangeNtB4_15PeriodRequested15try_parse_month0Ba_
FN:110,_RNCNvMNtNtNtCs32R6rcQHX2H_12time_tracker6domain5dates5rangeNtB4_15PeriodRequested20try_parse_week_value0Ba_
FN:145,_RNCNvMNtNtNtCs32R6rcQHX2H_12time_tracker6domain5dates5rangeNtB4_15PeriodRequested20try_parse_year_value0Ba_
FN:95,_RNCNvMNtNtNtCs32R6rcQHX2H_12time_tracker6domain5dates5rangeNtB4_15PeriodRequested21try_parse_month_value0Ba_
FN:21,_RNCNvMNtNtNtCs32R6rcQHX2H_12time_tracker6domain5dates5rangeNtB4_15PeriodRequested8from_str0Ba_
FN:155,_RNvMNtNtNtCs32R6rcQHX2H_12time_tracker6domain5dates5rangeNtB2_15PeriodRequested10date_range
FN:166,_RNvMNtNtNtCs32R6rcQHX2H_12time_tracker6domain5dates5rangeNtB2_15PeriodRequested11description
FN:28,_RNvMNtNtNtCs32R6rcQHX2H_12time_tracker6domain5dates5rangeNtB2_15PeriodRequested14from_from_date
FN:55,_RNvMNtNtNtCs32R6rcQHX2H_12time_tracker6domain5dates5rangeNtB2_15PeriodRequested15date_from_value
FN:64,_RNvMNtNtNtCs32R6rcQHX2H_12time_tracker6domain5dates5rangeNtB2_15PeriodRequested15try_parse_month
FN:42,_RNvMNtNtNtCs32R6rcQHX2H_12time_tracker6domain5dates5rangeNtB2_15PeriodRequested17date_from_literal
FN:80,_RNvMNtNtNtCs32R6rcQHX2H_12time_tracker6domain5dates5rangeNtB2_15PeriodRequested20try_parse_date_value
FN:108,_RNvMNtNtNtCs32R6rcQHX2H_12time_tracker6domain5dates5rangeNtB2_15PeriodRequested20try_parse_week_value
FN:143,_RNvMNtNtNtCs32R6rcQHX2H_12time_tracker6domain5dates5rangeNtB2_15PeriodRequested20try_parse_year_value
FN:127,_RNvMNtNtNtCs32R6rcQHX2H_12time_tracker6domain5dates5rangeNtB2_15PeriodRequested21get_first_day_of_week
FN:93,_RNvMNtNtNtCs32R6rcQHX2H_12time_tracker6domain5dates5rangeNtB2_15PeriodRequested21try_parse_month_value
FN:19,_RNvMNtNtNtCs32R6rcQHX2H_12time_tracker6domain5dates5rangeNtB2_15PeriodRequested8from_str
FN:261,_RNvMs_NtNtNtCs32R6rcQHX2H_12time_tracker6domain5dates5rangeNtB4_9DateRange13new_from_date
FN:215,_RNvMs_NtNtNtCs32R6rcQHX2H_12time_tracker6domain5dates5rangeNtB4_9DateRange3day
FN:256,_RNvMs_NtNtNtCs32R6rcQHX2H_12time_tracker6domain5dates5rangeNtB4_9DateRange7matches
FN:245,_RNvMs_NtNtNtCs32R6rcQHX2H_12time_tracker6domain5dates5rangeNtB4_9DateRange7year_of
FN:233,_RNvMs_NtNtNtCs32R6rcQHX2H_12time_tracker6domain5dates5rangeNtB4_9DateRange8month_of
FN:220,_RNvMs_NtNtNtCs32R6rcQHX2H_12time_tracker6domain5dates5rangeNtB4_9DateRange9from_date
FN:193,_RNvNtNtNtCs32R6rcQHX2H_12time_tracker6domain5dates5range10last_month
FN:200,_RNvNtNtNtCs32R6rcQHX2H_12time_tracker6domain5dates5range10this_month
FN:189,_RNvNtNtNtCs32R6rcQHX2H_12time_tracker6domain5dates5range17date_of_last_week
FN:185,_RNvNtNtNtCs32R6rcQHX2H_12time_tracker6domain5dates5range17date_of_this_week
FN:205,_RNvNtNtNtCs32R6rcQHX2H_12time_tracker6domain5dates5range22calculate_1st_of_month
FN:177,_RNvNtNtNtCs32R6rcQHX2H_12time_tracker6domain5dates5range5today
FN:181,_RNvNtNtNtCs32R6rcQHX2H_12time_tracker6domain5dates5range9yesterday
FN:268,_RNvXs0_NtNtNtCs32R6rcQHX2H_12time_tracker6domain5dates5rangeNtB5_9DateRangeNtNtCsaTRkahAGrLL_4core7default7Default7default
FN:225,_RNvMs_NtNtNtCs32R6rcQHX2H_12time_tracker6domain5dates5rangeNtB4_9DateRange7week_of
FN:68,_RNCNCNCNvMNtNtNtCseOvZ2GYdjRc_12time_tracker6domain5dates5rangeNtB8_15PeriodRequested15try_parse_month000Be_
FN:112,_RNCNCNCNvMNtNtNtCseOvZ2GYdjRc_12time_tracker6domain5dates5rangeNtB8_15PeriodRequested20try_parse_week_value000Be_
FN:97,_RNCNCNCNvMNtNtNtCseOvZ2GYdjRc_12time_tracker6domain5dates5rangeNtB8_15PeriodRequested21try_parse_month_value000Be_
FN:67,_RNCNCNvMNtNtNtCseOvZ2GYdjRc_12time_tracker6domain5dates5rangeNtB6_15PeriodRequested15try_parse_month00Bc_
FN:111,_RNCNCNvMNtNtNtCseOvZ2GYdjRc_12time_tracker6domain5dates5rangeNtB6_15PeriodRequested20try_parse_week_value00Bc_
FN:146,_RNCNCNvMNtNtNtCseOvZ2GYdjRc_12time_tracker6domain5dates5rangeNtB6_15PeriodRequested20try_parse_year_value00Bc_
FN:96,_RNCNCNvMNtNtNtCseOvZ2GYdjRc_12time_tracker6domain5dates5rangeNtB6_15PeriodRequested21try_parse_month_value00Bc_
FN:34,_RNCNvMNtNtNtCseOvZ2GYdjRc_12time_tracker6domain5dates5rangeNtB4_15PeriodRequested14from_from_date0Ba_
FN:57,_RNCNvMNtNtNtCseOvZ2GYdjRc_12time_tracker6domain5dates5rangeNtB4_15PeriodRequested15date_from_value0Ba_
FN:59,_RNCNvMNtNtNtCseOvZ2GYdjRc_12time_tracker6domain5dates5rangeNtB4_15PeriodRequested15date_from_values0_0Ba_
FN:60,_RNCNvMNtNtNtCseOvZ2GYdjRc_12time_tracker6domain5dates5rangeNtB4_15PeriodRequested15date_from_values1_0Ba_
FN:58,_RNCNvMNtNtNtCseOvZ2GYdjRc_12time_tracker6domain5dates5rangeNtB4_15PeriodRequested15date_from_values_0Ba_
FN:66,_RNCNvMNtNtNtCseOvZ2GYdjRc_12time_tracker6domain5dates5rangeNtB4_15PeriodRequested15try_parse_month0Ba_
FN:110,_RNCNvMNtNtNtCseOvZ2GYdjRc_12time_tracker6domain5dates5rangeNtB4_15PeriodRequested20try_parse_week_value0Ba_
FN:145,_RNCNvMNtNtNtCseOvZ2GYdjRc_12time_tracker6domain5dates5rangeNtB4_15PeriodRequested20try_parse_year_value0Ba_
FN:95,_RNCNvMNtNtNtCseOvZ2GYdjRc_12time_tracker6domain5dates5rangeNtB4_15PeriodRequested21try_parse_month_value0Ba_
FN:21,_RNCNvMNtNtNtCseOvZ2GYdjRc_12time_tracker6domain5dates5rangeNtB4_15PeriodRequested8from_str0Ba_
FN:155,_RNvMNtNtNtCseOvZ2GYdjRc_12time_tracker6domain5dates5rangeNtB2_15PeriodRequested10date_range
FN:166,_RNvMNtNtNtCseOvZ2GYdjRc_12time_tracker6domain5dates5rangeNtB2_15PeriodRequested11description
FN:28,_RNvMNtNtNtCseOvZ2GYdjRc_12time_tracker6domain5dates5rangeNtB2_15PeriodRequested14from_from_date
FN:55,_RNvMNtNtNtCseOvZ2GYdjRc_12time_tracker6domain5dates5rangeNtB2_15PeriodRequested15date_from_value
FN:64,_RNvMNtNtNtCseOvZ2GYdjRc_12time_tracker6domain5dates5rangeNtB2_15PeriodRequested15try_parse_month
FN:42,_RNvMNtNtNtCseOvZ2GYdjRc_12time_tracker6domain5dates5rangeNtB2_15PeriodRequested17date_from_literal
FN:80,_RNvMNtNtNtCseOvZ2GYdjRc_12time_tracker6domain5dates5rangeNtB2_15PeriodRequested20try_parse_date_value
FN:108,_RNvMNtNtNtCseOvZ2GYdjRc_12time_tracker6domain5dates5rangeNtB2_15PeriodRequested20try_parse_week_value
FN:143,_RNvMNtNtNtCseOvZ2GYdjRc_12time_tracker6domain5dates5rangeNtB2_15PeriodRequested20try_parse_year_value
FN:127,_RNvMNtNtNtCseOvZ2GYdjRc_12time_tracker6domain5dates5rangeNtB2_15PeriodRequested21get_first_day_of_week
FN:93,_RNvMNtNtNtCseOvZ2GYdjRc_12time_tracker6domain5dates5rangeNtB2_15PeriodRequested21try_parse_month_value
FN:19,_RNvMNtNtNtCseOvZ2GYdjRc_12time_tracker6domain5dates5rangeNtB2_15PeriodRequested8from_str
FN:261,_RNvMs_NtNtNtCseOvZ2GYdjRc_12time_tracker6domain5dates5rangeNtB4_9DateRange13new_from_date
FN:215,_RNvMs_NtNtNtCseOvZ2GYdjRc_12time_tracker6domain5dates5rangeNtB4_9DateRange3day
FN:256,_RNvMs_NtNtNtCseOvZ2GYdjRc_12time_tracker6domain5dates5rangeNtB4_9DateRange7matches
FN:225,_RNvMs_NtNtNtCseOvZ2GYdjRc_12time_tracker6domain5dates5rangeNtB4_9DateRange7week_of
FN:245,_RNvMs_NtNtNtCseOvZ2GYdjRc_12time_tracker6domain5dates5rangeNtB4_9DateRange7year_of
FN:233,_RNvMs_NtNtNtCseOvZ2GYdjRc_12time_tracker6domain5dates5rangeNtB4_9DateRange8month_of
FN:220,_RNvMs_NtNtNtCseOvZ2GYdjRc_12time_tracker6domain5dates5rangeNtB4_9DateRange9from_date
FN:193,_RNvNtNtNtCseOvZ2GYdjRc_12time_tracker6domain5dates5range10last_month
FN:200,_RNvNtNtNtCseOvZ2GYdjRc_12time_tracker6domain5dates5range10this_month
FN:189,_RNvNtNtNtCseOvZ2GYdjRc_12time_tracker6domain5dates5range17date_of_last_week
FN:185,_RNvNtNtNtCseOvZ2GYdjRc_12time_tracker6domain5dates5range17date_of_this_week
FN:205,_RNvNtNtNtCseOvZ2GYdjRc_12time_tracker6domain5dates5range22calculate_1st_of_month
FN:177,_RNvNtNtNtCseOvZ2GYdjRc_12time_tracker6domain5dates5range5today
FN:181,_RNvNtNtNtCseOvZ2GYdjRc_12time_tracker6domain5dates5range9yesterday
FN:268,_RNvXs0_NtNtNtCseOvZ2GYdjRc_12time_tracker6domain5dates5rangeNtB5_9DateRangeNtNtCsaTRkahAGrLL_4core7default7Default7default
FNDA:0,_RNCNCNCNvMNtNtNtCs32R6rcQHX2H_12time_tracker6domain5dates5rangeNtB8_15PeriodRequested15try_parse_month000Be_
FNDA:0,_RNCNCNCNvMNtNtNtCs32R6rcQHX2H_12time_tracker6domain5dates5rangeNtB8_15PeriodRequested20try_parse_week_value000Be_
FNDA:0,_RNCNCNCNvMNtNtNtCs32R6rcQHX2H_12time_tracker6domain5dates5rangeNtB8_15PeriodRequested21try_parse_month_value000Be_
FNDA:0,_RNCNCNvMNtNtNtCs32R6rcQHX2H_12time_tracker6domain5dates5rangeNtB6_15PeriodRequested15try_parse_month00Bc_
FNDA:0,_RNCNCNvMNtNtNtCs32R6rcQHX2H_12time_tracker6domain5dates5rangeNtB6_15PeriodRequested20try_parse_week_value00Bc_
FNDA:0,_RNCNCNvMNtNtNtCs32R6rcQHX2H_12time_tracker6domain5dates5rangeNtB6_15PeriodRequested20try_parse_year_value00Bc_
FNDA:0,_RNCNCNvMNtNtNtCs32R6rcQHX2H_12time_tracker6domain5dates5rangeNtB6_15PeriodRequested21try_parse_month_value00Bc_
FNDA:0,_RNCNvMNtNtNtCs32R6rcQHX2H_12time_tracker6domain5dates5rangeNtB4_15PeriodRequested14from_from_date0Ba_
FNDA:0,_RNCNvMNtNtNtCs32R6rcQHX2H_12time_tracker6domain5dates5rangeNtB4_15PeriodRequested15date_from_value0Ba_
FNDA:0,_RNCNvMNtNtNtCs32R6rcQHX2H_12time_tracker6domain5dates5rangeNtB4_15PeriodRequested15date_from_values0_0Ba_
FNDA:0,_RNCNvMNtNtNtCs32R6rcQHX2H_12time_tracker6domain5dates5rangeNtB4_15PeriodRequested15date_from_values1_0Ba_
FNDA:0,_RNCNvMNtNtNtCs32R6rcQHX2H_12time_tracker6domain5dates5rangeNtB4_15PeriodRequested15date_from_values_0Ba_
FNDA:0,_RNCNvMNtNtNtCs32R6rcQHX2H_12time_tracker6domain5dates5rangeNtB4_15PeriodRequested15try_parse_month0Ba_
FNDA:0,_RNCNvMNtNtNtCs32R6rcQHX2H_12time_tracker6domain5dates5rangeNtB4_15PeriodRequested20try_parse_week_value0Ba_
FNDA:0,_RNCNvMNtNtNtCs32R6rcQHX2H_12time_tracker6domain5dates5rangeNtB4_15PeriodRequested20try_parse_year_value0Ba_
FNDA:0,_RNCNvMNtNtNtCs32R6rcQHX2H_12time_tracker6domain5dates5rangeNtB4_15PeriodRequested21try_parse_month_value0Ba_
FNDA:0,_RNCNvMNtNtNtCs32R6rcQHX2H_12time_tracker6domain5dates5rangeNtB4_15PeriodRequested8from_str0Ba_
FNDA:0,_RNvMNtNtNtCs32R6rcQHX2H_12time_tracker6domain5dates5rangeNtB2_15PeriodRequested10date_range
FNDA:0,_RNvMNtNtNtCs32R6rcQHX2H_12time_tracker6domain5dates5rangeNtB2_15PeriodRequested11description
FNDA:0,_RNvMNtNtNtCs32R6rcQHX2H_12time_tracker6domain5dates5rangeNtB2_15PeriodRequested14from_from_date
FNDA:0,_RNvMNtNtNtCs32R6rcQHX2H_12time_tracker6domain5dates5rangeNtB2_15PeriodRequested15date_from_value
FNDA:0,_RNvMNtNtNtCs32R6rcQHX2H_12time_tracker6domain5dates5rangeNtB2_15PeriodRequested15try_parse_month
FNDA:0,_RNvMNtNtNtCs32R6rcQHX2H_12time_tracker6domain5dates5rangeNtB2_15PeriodRequested17date_from_literal
FNDA:0,_RNvMNtNtNtCs32R6rcQHX2H_12time_tracker6domain5dates5rangeNtB2_15PeriodRequested20try_parse_date_value
FNDA:0,_RNvMNtNtNtCs32R6rcQHX2H_12time_tracker6domain5dates5rangeNtB2_15PeriodRequested20try_parse_week_value
FNDA:0,_RNvMNtNtNtCs32R6rcQHX2H_12time_tracker6domain5dates5rangeNtB2_15PeriodRequested20try_parse_year_value
FNDA:0,_RNvMNtNtNtCs32R6rcQHX2H_12time_tracker6domain5dates5rangeNtB2_15PeriodRequested21get_first_day_of_week
FNDA:0,_RNvMNtNtNtCs32R6rcQHX2H_12time_tracker6domain5dates5rangeNtB2_15PeriodRequested21try_parse_month_value
FNDA:0,_RNvMNtNtNtCs32R6rcQHX2H_12time_tracker6domain5dates5rangeNtB2_15PeriodRequested8from_str
FNDA:0,_RNvMs_NtNtNtCs32R6rcQHX2H_12time_tracker6domain5dates5rangeNtB4_9DateRange13new_from_date
FNDA:0,_RNvMs_NtNtNtCs32R6rcQHX2H_12time_tracker6domain5dates5rangeNtB4_9DateRange3day
FNDA:0,_RNvMs_NtNtNtCs32R6rcQHX2H_12time_tracker6domain5dates5rangeNtB4_9DateRange7matches
FNDA:0,_RNvMs_NtNtNtCs32R6rcQHX2H_12time_tracker6domain5dates5rangeNtB4_9DateRange7year_of
FNDA:0,_RNvMs_NtNtNtCs32R6rcQHX2H_12time_tracker6domain5dates5rangeNtB4_9DateRange8month_of
FNDA:0,_RNvMs_NtNtNtCs32R6rcQHX2H_12time_tracker6domain5dates5rangeNtB4_9DateRange9from_date
FNDA:0,_RNvNtNtNtCs32R6rcQHX2H_12time_tracker6domain5dates5range10last_month
FNDA:0,_RNvNtNtNtCs32R6rcQHX2H_12time_tracker6domain5dates5range10this_month
FNDA:0,_RNvNtNtNtCs32R6rcQHX2H_12time_tracker6domain5dates5range17date_of_last_week
FNDA:0,_RNvNtNtNtCs32R6rcQHX2H_12time_tracker6domain5dates5range17date_of_this_week
FNDA:0,_RNvNtNtNtCs32R6rcQHX2H_12time_tracker6domain5dates5range22calculate_1st_of_month
FNDA:0,_RNvNtNtNtCs32R6rcQHX2H_12time_tracker6domain5dates5range5today
FNDA:0,_RNvNtNtNtCs32R6rcQHX2H_12time_tracker6domain5dates5range9yesterday
FNDA:0,_RNvXs0_NtNtNtCs32R6rcQHX2H_12time_tracker6domain5dates5rangeNtB5_9DateRangeNtNtCsaTRkahAGrLL_4core7default7Default7default
FNDA:1,_RNvMs_NtNtNtCs32R6rcQHX2H_12time_tracker6domain5dates5rangeNtB4_9DateRange7week_of
FNDA:16,_RNCNCNCNvMNtNtNtCseOvZ2GYdjRc_12time_tracker6domain5dates5rangeNtB8_15PeriodRequested15try_parse_month000Be_
FNDA:5,_RNCNCNCNvMNtNtNtCseOvZ2GYdjRc_12time_tracker6domain5dates5rangeNtB8_15PeriodRequested20try_parse_week_value000Be_
FNDA:5,_RNCNCNCNvMNtNtNtCseOvZ2GYdjRc_12time_tracker6domain5dates5rangeNtB8_15PeriodRequested21try_parse_month_value000Be_
FNDA:16,_RNCNCNvMNtNtNtCseOvZ2GYdjRc_12time_tracker6domain5dates5rangeNtB6_15PeriodRequested15try_parse_month00Bc_
FNDA:5,_RNCNCNvMNtNtNtCseOvZ2GYdjRc_12time_tracker6domain5dates5rangeNtB6_15PeriodRequested20try_parse_week_value00Bc_
FNDA:2,_RNCNCNvMNtNtNtCseOvZ2GYdjRc_12time_tracker6domain5dates5rangeNtB6_15PeriodRequested20try_parse_year_value00Bc_
FNDA:5,_RNCNCNvMNtNtNtCseOvZ2GYdjRc_12time_tracker6domain5dates5rangeNtB6_15PeriodRequested21try_parse_month_value00Bc_
FNDA:4,_RNCNvMNtNtNtCseOvZ2GYdjRc_12time_tracker6domain5dates5rangeNtB4_15PeriodRequested14from_from_date0Ba_
FNDA:22,_RNCNvMNtNtNtCseOvZ2GYdjRc_12time_tracker6domain5dates5rangeNtB4_15PeriodRequested15date_from_value0Ba_
FNDA:17,_RNCNvMNtNtNtCseOvZ2GYdjRc_12time_tracker6domain5dates5rangeNtB4_15PeriodRequested15date_from_values0_0Ba_
FNDA:14,_RNCNvMNtNtNtCseOvZ2GYdjRc_12time_tracker6domain5dates5rangeNtB4_15PeriodRequested15date_from_values1_0Ba_
FNDA:20,_RNCNvMNtNtNtCseOvZ2GYdjRc_12time_tracker6domain5dates5rangeNtB4_15PeriodRequested15date_from_values_0Ba_
FNDA:16,_RNCNvMNtNtNtCseOvZ2GYdjRc_12time_tracker6domain5dates5rangeNtB4_15PeriodRequested15try_parse_month0Ba_
FNDA:5,_RNCNvMNtNtNtCseOvZ2GYdjRc_12time_tracker6domain5dates5rangeNtB4_15PeriodRequested20try_parse_week_value0Ba_
FNDA:2,_RNCNvMNtNtNtCseOvZ2GYdjRc_12time_tracker6domain5dates5rangeNtB4_15PeriodRequested20try_parse_year_value0Ba_
FNDA:5,_RNCNvMNtNtNtCseOvZ2GYdjRc_12time_tracker6domain5dates5rangeNtB4_15PeriodRequested21try_parse_month_value0Ba_
FNDA:34,_RNCNvMNtNtNtCseOvZ2GYdjRc_12time_tracker6domain5dates5rangeNtB4_15PeriodRequested8from_str0Ba_
FNDA:49,_RNvMNtNtNtCseOvZ2GYdjRc_12time_tracker6domain5dates5rangeNtB2_15PeriodRequested10date_range
FNDA:48,_RNvMNtNtNtCseOvZ2GYdjRc_12time_tracker6domain5dates5rangeNtB2_15PeriodRequested11description
FNDA:58,_RNvMNtNtNtCseOvZ2GYdjRc_12time_tracker6domain5dates5rangeNtB2_15PeriodRequested14from_from_date
FNDA:34,_RNvMNtNtNtCseOvZ2GYdjRc_12time_tracker6domain5dates5rangeNtB2_15PeriodRequested15date_from_value
FNDA:34,_RNvMNtNtNtCseOvZ2GYdjRc_12time_tracker6domain5dates5rangeNtB2_15PeriodRequested15try_parse_month
FNDA:58,_RNvMNtNtNtCseOvZ2GYdjRc_12time_tracker6domain5dates5rangeNtB2_15PeriodRequested17date_from_literal
FNDA:22,_RNvMNtNtNtCseOvZ2GYdjRc_12time_tracker6domain5dates5rangeNtB2_15PeriodRequested20try_parse_date_value
FNDA:17,_RNvMNtNtNtCseOvZ2GYdjRc_12time_tracker6domain5dates5rangeNtB2_15PeriodRequested20try_parse_week_value
FNDA:14,_RNvMNtNtNtCseOvZ2GYdjRc_12time_tracker6domain5dates5rangeNtB2_15PeriodRequested20try_parse_year_value
FNDA:3,_RNvMNtNtNtCseOvZ2GYdjRc_12time_tracker6domain5dates5rangeNtB2_15PeriodRequested21get_first_day_of_week
FNDA:20,_RNvMNtNtNtCseOvZ2GYdjRc_12time_tracker6domain5dates5rangeNtB2_15PeriodRequested21try_parse_month_value
FNDA:58,_RNvMNtNtNtCseOvZ2GYdjRc_12time_tracker6domain5dates5rangeNtB2_15PeriodRequested8from_str
FNDA:0,_RNvMs_NtNtNtCseOvZ2GYdjRc_12time_tracker6domain5dates5rangeNtB4_9DateRange13new_from_date
FNDA:14,_RNvMs_NtNtNtCseOvZ2GYdjRc_12time_tracker6domain5dates5rangeNtB4_9DateRange3day
FNDA:139,_RNvMs_NtNtNtCseOvZ2GYdjRc_12time_tracker6domain5dates5rangeNtB4_9DateRange7matches
FNDA:7,_RNvMs_NtNtNtCseOvZ2GYdjRc_12time_tracker6domain5dates5rangeNtB4_9DateRange7week_of
FNDA:2,_RNvMs_NtNtNtCseOvZ2GYdjRc_12time_tracker6domain5dates5rangeNtB4_9DateRange7year_of
FNDA:23,_RNvMs_NtNtNtCseOvZ2GYdjRc_12time_tracker6domain5dates5rangeNtB4_9DateRange8month_of
FNDA:3,_RNvMs_NtNtNtCseOvZ2GYdjRc_12time_tracker6domain5dates5rangeNtB4_9DateRange9from_date
FNDA:6,_RNvNtNtNtCseOvZ2GYdjRc_12time_tracker6domain5dates5range10last_month
FNDA:2,_RNvNtNtNtCseOvZ2GYdjRc_12time_tracker6domain5dates5range10this_month
FNDA:2,_RNvNtNtNtCseOvZ2GYdjRc_12time_tracker6domain5dates5range17date_of_last_week
FNDA:4,_RNvNtNtNtCseOvZ2GYdjRc_12time_tracker6domain5dates5range17date_of_this_week
FNDA:8,_RNvNtNtNtCseOvZ2GYdjRc_12time_tracker6domain5dates5range22calculate_1st_of_month
FNDA:30,_RNvNtNtNtCseOvZ2GYdjRc_12time_tracker6domain5dates5range5today
FNDA:6,_RNvNtNtNtCseOvZ2GYdjRc_12time_tracker6domain5dates5range9yesterday
FNDA:0,_RNvXs0_NtNtNtCseOvZ2GYdjRc_12time_tracker6domain5dates5rangeNtB5_9DateRangeNtNtCsaTRkahAGrLL_4core7default7Default7default
FNF:44
FNH:42
DA:19,58
DA:20,58
DA:21,58
DA:22,58
DA:23,58
DA:24,58
DA:25,58
DA:28,58
DA:29,58
DA:30,58
DA:31,58
DA:32,7
DA:33,7
DA:34,7
DA:35,3
DA:37,51
DA:39,58
DA:42,58
DA:43,58
DA:44,58
DA:45,52
DA:46,46
DA:47,44
DA:48,42
DA:49,40
DA:50,34
DA:52,58
DA:55,34
DA:56,34
DA:57,34
DA:58,34
DA:59,34
DA:60,34
DA:61,34
DA:64,34
DA:65,34
DA:66,34
DA:67,16
DA:68,16
DA:69,16
DA:70,12
DA:72,4
DA:74,16
DA:75,16
DA:76,34
DA:77,34
DA:80,22
DA:81,22
DA:82,22
DA:83,5
DA:84,2
DA:85,3
DA:88,17
DA:90,22
DA:93,20
DA:94,20
DA:95,20
DA:96,5
DA:97,5
DA:98,5
DA:99,5
DA:100,5
DA:101,5
DA:102,5
DA:103,20
DA:104,20
DA:105,20
DA:108,17
DA:109,17
DA:110,17
DA:111,5
DA:112,5
DA:113,5
DA:114,5
DA:115,3
DA:116,3
DA:118,2
DA:120,5
DA:121,5
DA:122,17
DA:123,17
DA:124,17
DA:127,3
DA:128,3
DA:129,0
DA:130,3
DA:133,3
DA:135,3
DA:136,3
DA:138,3
DA:139,3
DA:140,3
DA:143,14
DA:144,14
DA:145,14
DA:146,2
DA:147,2
DA:148,2
DA:149,2
DA:150,14
DA:151,14
DA:152,14
DA:155,49
DA:156,49
DA:157,14
DA:158,3
DA:159,7
DA:160,23
DA:161,2
DA:163,49
DA:166,48
DA:167,48
DA:168,14
DA:169,2
DA:170,7
DA:171,23
DA:172,2
DA:174,48
DA:177,30
DA:178,30
DA:179,30
DA:181,6
DA:182,6
DA:183,6
DA:185,4
DA:186,4
DA:187,4
DA:189,2
DA:190,2
DA:191,2
DA:193,6
DA:194,6
DA:195,6
DA:196,6
DA:197,6
DA:198,6
DA:200,2
DA:201,2
DA:202,2
DA:203,2
DA:205,8
DA:206,8
DA:207,8
DA:215,14
DA:216,14
DA:217,14
DA:220,3
DA:221,3
DA:222,3
DA:225,8
DA:226,8
DA:227,8
DA:228,8
DA:229,8
DA:233,23
DA:234,23
DA:235,23
DA:236,23
DA:237,23
DA:238,23
DA:239,23
DA:240,23
DA:241,23
DA:245,2
DA:246,2
DA:247,2
DA:248,2
DA:249,2
DA:250,2
DA:251,2
DA:252,2
DA:253,2
DA:256,139
DA:257,139
DA:258,139
DA:261,0
DA:262,0
DA:263,0
DA:264,0
DA:268,0
DA:269,0
DA:270,0
BRF:0
BRH:0
LF:210
LH:202
end_of_record
SF:/Users/hans/dev/rust/time-tracker/src/domain/mod.rs
FN:44,_RNCNvMNtCs32R6rcQHX2H_12time_tracker6domainNtB4_9TimeEntry12context_tags0B6_
FN:39,_RNCNvMNtCs32R6rcQHX2H_12time_tracker6domainNtB4_9TimeEntry12project_tags0B6_
FN:49,_RNCNvMNtCs32R6rcQHX2H_12time_tracker6domainNtB4_9TimeEntry15has_project_tag0B6_
FN:43,_RNvMNtCs32R6rcQHX2H_12time_tracker6domainNtB2_9TimeEntry12context_tags
FN:38,_RNvMNtCs32R6rcQHX2H_12time_tracker6domainNtB2_9TimeEntry12project_tags
FN:48,_RNvMNtCs32R6rcQHX2H_12time_tracker6domainNtB2_9TimeEntry15has_project_tag
FN:33,_RNvMNtCs32R6rcQHX2H_12time_tracker6domainNtB2_9TimeEntry8get_tags
FN:328,_RNvNtNtNtNtCs32R6rcQHX2H_12time_tracker6domain5tests18line_entry_parsing11tag_parsings_32parse_line_with_project_and_tags
FN:336,_RNvNtNtNtNtCs32R6rcQHX2H_12time_tracker6domain5tests18line_entry_parsing11tag_parsings_33parse_line_with_only_context_tags
FN:320,_RNvNtNtNtNtCs32R6rcQHX2H_12time_tracker6domain5tests18line_entry_parsing11tag_parsings_34parse_line_with_project_prefix_tag
FN:260,_RNvNtNtNtCs32R6rcQHX2H_12time_tracker6domain5tests18line_entry_parsing17parse_non_entries
FN:287,_RNvNtNtNtCs32R6rcQHX2H_12time_tracker6domain5tests18line_entry_parsing39parse_invalid_times_ending_in_time_unit
FN:245,_RNvNtNtNtCs32R6rcQHX2H_12time_tracker6domain5tests18line_entry_parsings_15parse_pomodoros
FN:279,_RNvNtNtNtCs32R6rcQHX2H_12time_tracker6domain5tests18line_entry_parsings_18parse_invalid_time
FN:237,_RNvNtNtNtCs32R6rcQHX2H_12time_tracker6domain5tests18line_entry_parsings_18parse_simple_hours
FN:299,_RNvNtNtNtCs32R6rcQHX2H_12time_tracker6domain5tests18line_entry_parsings_18parse_time_missing
FN:229,_RNvNtNtNtCs32R6rcQHX2H_12time_tracker6domain5tests18line_entry_parsings_20parse_simple_minutes
FN:308,_RNvNtNtNtCs32R6rcQHX2H_12time_tracker6domain5tests18line_entry_parsings_21parse_project_missing
FN:211,_RNvNtNtNtCs32R6rcQHX2H_12time_tracker6domain5tests18line_entry_parsings_26parse_simple_complete_line
FN:253,_RNvNtNtNtCs32R6rcQHX2H_12time_tracker6domain5tests18line_entry_parsings_27parse_multiple_time_entries
FN:221,_RNvNtNtNtCs32R6rcQHX2H_12time_tracker6domain5tests18line_entry_parsings_34parse_task_description_is_optional
FN:287,_RNvNtNtNtNtCs32R6rcQHX2H_12time_tracker6domain5tests18line_entry_parsing39parse_invalid_times_ending_in_time_units_27supported_time_unit_1___h__
FN:287,_RNvNtNtNtNtCs32R6rcQHX2H_12time_tracker6domain5tests18line_entry_parsing39parse_invalid_times_ending_in_time_units_27supported_time_unit_2___m__
FN:287,_RNvNtNtNtNtCs32R6rcQHX2H_12time_tracker6domain5tests18line_entry_parsing39parse_invalid_times_ending_in_time_units_27supported_time_unit_3___p__
FN:106,_RNCNvNtCs32R6rcQHX2H_12time_tracker6domain10parse_line0B5_
FN:28,_RNvMNtCs32R6rcQHX2H_12time_tracker6domainNtB2_9TimeEntry12main_context
FN:19,_RNvMNtCs32R6rcQHX2H_12time_tracker6domainNtB2_9TimeEntry5parse
FN:392,_RNvMs0_NtNtNtNtCs32R6rcQHX2H_12time_tracker6domain5tests18line_entry_parsing4specNtBb_9TimeEntry14expect_context
FN:387,_RNvMs0_NtNtNtNtCs32R6rcQHX2H_12time_tracker6domain5tests18line_entry_parsing4specNtBb_9TimeEntry14expect_minutes
FN:397,_RNvMs0_NtNtNtNtCs32R6rcQHX2H_12time_tracker6domain5tests18line_entry_parsing4specNtBb_9TimeEntry18expect_description
FN:402,_RNvMs0_NtNtNtNtCs32R6rcQHX2H_12time_tracker6domain5tests18line_entry_parsing4specNtBb_9TimeEntry21expect_no_description
FN:64,_RNvMs_NtCs32R6rcQHX2H_12time_tracker6domainNtB4_9EntryLine13is_line_entry
FN:73,_RNvMs_NtCs32R6rcQHX2H_12time_tracker6domainNtB4_9EntryLine5entry
FN:56,_RNvMs_NtCs32R6rcQHX2H_12time_tracker6domainNtB4_9EntryLine5parse
FN:68,_RNvMs_NtCs32R6rcQHX2H_12time_tracker6domainNtB4_9EntryLine8get_line
FN:78,_RNvNtCs32R6rcQHX2H_12time_tracker6domain10parse_line
FN:129,_RNvNtCs32R6rcQHX2H_12time_tracker6domain10parse_part
FN:146,_RNvNtCs32R6rcQHX2H_12time_tracker6domain10parse_time
FN:185,_RNvXs0_NtCs32R6rcQHX2H_12time_tracker6domainNtB5_10ParseErrorNtNtCsaTRkahAGrLL_4core3fmt7Display3fmt
FN:413,_RNvNtNtNtCs32R6rcQHX2H_12time_tracker6domain5tests21parser_error_handlings_14error_messages
FN:421,_RNvNtNtNtCs32R6rcQHX2H_12time_tracker6domain5tests21parser_error_handlings_16error_conversion
FN:352,_RNvMNtNtNtNtCs32R6rcQHX2H_12time_tracker6domain5tests18line_entry_parsing4specNtB2_8LineSpec10given_line
FN:358,_RNvMNtNtNtNtCs32R6rcQHX2H_12time_tracker6domain5tests18line_entry_parsing4specNtB2_8LineSpec11when_parsed
FN:369,_RNvMs_NtNtNtNtCs32R6rcQHX2H_12time_tracker6domain5tests18line_entry_parsing4specNtB4_17LineParsingResult18expect_valid_entry
FN:380,_RNvMs_NtNtNtNtCs32R6rcQHX2H_12time_tracker6domain5tests18line_entry_parsing4specNtB4_17LineParsingResult19expect_invalid_with
FN:375,_RNvMs_NtNtNtNtCs32R6rcQHX2H_12time_tracker6domain5tests18line_entry_parsing4specNtB4_17LineParsingResult36expect_not_an_entry_and_not_an_error
FN:43,_RNvMNtCseOvZ2GYdjRc_12time_tracker6domainNtB2_9TimeEntry12context_tags
FN:28,_RNvMNtCseOvZ2GYdjRc_12time_tracker6domainNtB2_9TimeEntry12main_context
FN:38,_RNvMNtCseOvZ2GYdjRc_12time_tracker6domainNtB2_9TimeEntry12project_tags
FN:48,_RNvMNtCseOvZ2GYdjRc_12time_tracker6domainNtB2_9TimeEntry15has_project_tag
FN:19,_RNvMNtCseOvZ2GYdjRc_12time_tracker6domainNtB2_9TimeEntry5parse
FN:33,_RNvMNtCseOvZ2GYdjRc_12time_tracker6domainNtB2_9TimeEntry8get_tags
FN:64,_RNvMs_NtCseOvZ2GYdjRc_12time_tracker6domainNtB4_9EntryLine13is_line_entry
FN:73,_RNvMs_NtCseOvZ2GYdjRc_12time_tracker6domainNtB4_9EntryLine5entry
FN:56,_RNvMs_NtCseOvZ2GYdjRc_12time_tracker6domainNtB4_9EntryLine5parse
FN:68,_RNvMs_NtCseOvZ2GYdjRc_12time_tracker6domainNtB4_9EntryLine8get_line
FN:78,_RNvNtCseOvZ2GYdjRc_12time_tracker6domain10parse_line
FN:129,_RNvNtCseOvZ2GYdjRc_12time_tracker6domain10parse_part
FN:146,_RNvNtCseOvZ2GYdjRc_12time_tracker6domain10parse_time
FN:185,_RNvXs0_NtCseOvZ2GYdjRc_12time_tracker6domainNtB5_10ParseErrorNtNtCsaTRkahAGrLL_4core3fmt7Display3fmt
FN:44,_RNCNvMNtCseOvZ2GYdjRc_12time_tracker6domainNtB4_9TimeEntry12context_tags0B6_
FN:39,_RNCNvMNtCseOvZ2GYdjRc_12time_tracker6domainNtB4_9TimeEntry12project_tags0B6_
FN:49,_RNCNvMNtCseOvZ2GYdjRc_12time_tracker6domainNtB4_9TimeEntry15has_project_tag0B6_
FN:106,_RNCNvNtCseOvZ2GYdjRc_12time_tracker6domain10parse_line0B5_
FNDA:0,_RNCNvMNtCs32R6rcQHX2H_12time_tracker6domainNtB4_9TimeEntry12context_tags0B6_
FNDA:0,_RNCNvMNtCs32R6rcQHX2H_12time_tracker6domainNtB4_9TimeEntry12project_tags0B6_
FNDA:0,_RNCNvMNtCs32R6rcQHX2H_12time_tracker6domainNtB4_9TimeEntry15has_project_tag0B6_
FNDA:0,_RNvMNtCs32R6rcQHX2H_12time_tracker6domainNtB2_9TimeEntry12context_tags
FNDA:0,_RNvMNtCs32R6rcQHX2H_12time_tracker6domainNtB2_9TimeEntry12project_tags
FNDA:0,_RNvMNtCs32R6rcQHX2H_12time_tracker6domainNtB2_9TimeEntry15has_project_tag
FNDA:0,_RNvMNtCs32R6rcQHX2H_12time_tracker6domainNtB2_9TimeEntry8get_tags
FNDA:1,_RNvNtNtNtNtCs32R6rcQHX2H_12time_tracker6domain5tests18line_entry_parsing11tag_parsings_32parse_line_with_project_and_tags
FNDA:1,_RNvNtNtNtNtCs32R6rcQHX2H_12time_tracker6domain5tests18line_entry_parsing11tag_parsings_33parse_line_with_only_context_tags
FNDA:1,_RNvNtNtNtNtCs32R6rcQHX2H_12time_tracker6domain5tests18line_entry_parsing11tag_parsings_34parse_line_with_project_prefix_tag
FNDA:7,_RNvNtNtNtCs32R6rcQHX2H_12time_tracker6domain5tests18line_entry_parsing17parse_non_entries
FNDA:3,_RNvNtNtNtCs32R6rcQHX2H_12time_tracker6domain5tests18line_entry_parsing39parse_invalid_times_ending_in_time_unit
FNDA:1,_RNvNtNtNtCs32R6rcQHX2H_12time_tracker6domain5tests18line_entry_parsings_15parse_pomodoros
FNDA:1,_RNvNtNtNtCs32R6rcQHX2H_12time_tracker6domain5tests18line_entry_parsings_18parse_invalid_time
FNDA:1,_RNvNtNtNtCs32R6rcQHX2H_12time_tracker6domain5tests18line_entry_parsings_18parse_simple_hours
FNDA:1,_RNvNtNtNtCs32R6rcQHX2H_12time_tracker6domain5tests18line_entry_parsings_18parse_time_missing
FNDA:1,_RNvNtNtNtCs32R6rcQHX2H_12time_tracker6domain5tests18line_entry_parsings_20parse_simple_minutes
FNDA:1,_RNvNtNtNtCs32R6rcQHX2H_12time_tracker6domain5tests18line_entry_parsings_21parse_project_missing
FNDA:1,_RNvNtNtNtCs32R6rcQHX2H_12time_tracker6domain5tests18line_entry_parsings_26parse_simple_complete_line
FNDA:1,_RNvNtNtNtCs32R6rcQHX2H_12time_tracker6domain5tests18line_entry_parsings_27parse_multiple_time_entries
FNDA:1,_RNvNtNtNtCs32R6rcQHX2H_12time_tracker6domain5tests18line_entry_parsings_34parse_task_description_is_optional
FNDA:1,_RNvNtNtNtNtCs32R6rcQHX2H_12time_tracker6domain5tests18line_entry_parsing39parse_invalid_times_ending_in_time_units_27supported_time_unit_1___h__
FNDA:1,_RNvNtNtNtNtCs32R6rcQHX2H_12time_tracker6domain5tests18line_entry_parsing39parse_invalid_times_ending_in_time_units_27supported_time_unit_2___m__
FNDA:1,_RNvNtNtNtNtCs32R6rcQHX2H_12time_tracker6domain5tests18line_entry_parsing39parse_invalid_times_ending_in_time_units_27supported_time_unit_3___p__
FNDA:5,_RNCNvNtCs32R6rcQHX2H_12time_tracker6domain10parse_line0B5_
FNDA:8,_RNvMNtCs32R6rcQHX2H_12time_tracker6domainNtB2_9TimeEntry12main_context
FNDA:29,_RNvMNtCs32R6rcQHX2H_12time_tracker6domainNtB2_9TimeEntry5parse
FNDA:4,_RNvMs0_NtNtNtNtCs32R6rcQHX2H_12time_tracker6domain5tests18line_entry_parsing4specNtBb_9TimeEntry14expect_context
FNDA:5,_RNvMs0_NtNtNtNtCs32R6rcQHX2H_12time_tracker6domain5tests18line_entry_parsing4specNtBb_9TimeEntry14expect_minutes
FNDA:1,_RNvMs0_NtNtNtNtCs32R6rcQHX2H_12time_tracker6domain5tests18line_entry_parsing4specNtBb_9TimeEntry18expect_description
FNDA:1,_RNvMs0_NtNtNtNtCs32R6rcQHX2H_12time_tracker6domain5tests18line_entry_parsing4specNtBb_9TimeEntry21expect_no_description
FNDA:29,_RNvMs_NtCs32R6rcQHX2H_12time_tracker6domainNtB4_9EntryLine13is_line_entry
FNDA:20,_RNvMs_NtCs32R6rcQHX2H_12time_tracker6domainNtB4_9EntryLine5entry
FNDA:29,_RNvMs_NtCs32R6rcQHX2H_12time_tracker6domainNtB4_9EntryLine5parse
FNDA:5,_RNvMs_NtCs32R6rcQHX2H_12time_tracker6domainNtB4_9EntryLine8get_line
FNDA:20,_RNvNtCs32R6rcQHX2H_12time_tracker6domain10parse_line
FNDA:56,_RNvNtCs32R6rcQHX2H_12time_tracker6domain10parse_part
FNDA:33,_RNvNtCs32R6rcQHX2H_12time_tracker6domain10parse_time
FNDA:1,_RNvXs0_NtCs32R6rcQHX2H_12time_tracker6domainNtB5_10ParseErrorNtNtCsaTRkahAGrLL_4core3fmt7Display3fmt
FNDA:1,_RNvNtNtNtCs32R6rcQHX2H_12time_tracker6domain5tests21parser_error_handlings_14error_messages
FNDA:1,_RNvNtNtNtCs32R6rcQHX2H_12time_tracker6domain5tests21parser_error_handlings_16error_conversion
FNDA:22,_RNvMNtNtNtNtCs32R6rcQHX2H_12time_tracker6domain5tests18line_entry_parsing4specNtB2_8LineSpec10given_line
FNDA:22,_RNvMNtNtNtNtCs32R6rcQHX2H_12time_tracker6domain5tests18line_entry_parsing4specNtB2_8LineSpec11when_parsed
FNDA:9,_RNvMs_NtNtNtNtCs32R6rcQHX2H_12time_tracker6domain5tests18line_entry_parsing4specNtB4_17LineParsingResult18expect_valid_entry
FNDA:6,_RNvMs_NtNtNtNtCs32R6rcQHX2H_12time_tracker6domain5tests18line_entry_parsing4specNtB4_17LineParsingResult19expect_invalid_with
FNDA:7,_RNvMs_NtNtNtNtCs32R6rcQHX2H_12time_tracker6domain5tests18line_entry_parsing4specNtB4_17LineParsingResult36expect_not_an_entry_and_not_an_error
FNDA:0,_RNvMNtCseOvZ2GYdjRc_12time_tracker6domainNtB2_9TimeEntry12context_tags
FNDA:116,_RNvMNtCseOvZ2GYdjRc_12time_tracker6domainNtB2_9TimeEntry12main_context
FNDA:0,_RNvMNtCseOvZ2GYdjRc_12time_tracker6domainNtB2_9TimeEntry12project_tags
FNDA:0,_RNvMNtCseOvZ2GYdjRc_12time_tracker6domainNtB2_9TimeEntry15has_project_tag
FNDA:246,_RNvMNtCseOvZ2GYdjRc_12time_tracker6domainNtB2_9TimeEntry5parse
FNDA:38,_RNvMNtCseOvZ2GYdjRc_12time_tracker6domainNtB2_9TimeEntry8get_tags
FNDA:246,_RNvMs_NtCseOvZ2GYdjRc_12time_tracker6domainNtB4_9EntryLine13is_line_entry
FNDA:224,_RNvMs_NtCseOvZ2GYdjRc_12time_tracker6domainNtB4_9EntryLine5entry
FNDA:246,_RNvMs_NtCseOvZ2GYdjRc_12time_tracker6domainNtB4_9EntryLine5parse
FNDA:5,_RNvMs_NtCseOvZ2GYdjRc_12time_tracker6domainNtB4_9EntryLine8get_line
FNDA:224,_RNvNtCseOvZ2GYdjRc_12time_tracker6domain10parse_line
FNDA:711,_RNvNtCseOvZ2GYdjRc_12time_tracker6domain10parse_part
FNDA:477,_RNvNtCseOvZ2GYdjRc_12time_tracker6domain10parse_time
FNDA:30,_RNvXs0_NtCseOvZ2GYdjRc_12time_tracker6domainNtB5_10ParseErrorNtNtCsaTRkahAGrLL_4core3fmt7Display3fmt
FNDA:0,_RNCNvMNtCseOvZ2GYdjRc_12time_tracker6domainNtB4_9TimeEntry12context_tags0B6_
FNDA:0,_RNCNvMNtCseOvZ2GYdjRc_12time_tracker6domainNtB4_9TimeEntry12project_tags0B6_
FNDA:0,_RNCNvMNtCseOvZ2GYdjRc_12time_tracker6domainNtB4_9TimeEntry15has_project_tag0B6_
FNDA:200,_RNCNvNtCseOvZ2GYdjRc_12time_tracker6domain10parse_line0B5_
FNF:43
FNH:37
DA:19,275
DA:20,275
DA:21,275
DA:22,244
DA:23,31
DA:25,275
DA:28,124
DA:29,124
DA:30,124
DA:33,38
DA:34,38
DA:35,38
DA:38,0
DA:39,0
DA:40,0
DA:43,0
DA:44,0
DA:45,0
DA:48,0
DA:49,0
DA:50,0
DA:56,275
DA:57,275
DA:58,244
DA:60,31
DA:62,275
DA:64,275
DA:65,275
DA:66,275
DA:68,10
DA:69,10
DA:70,10
DA:73,244
DA:74,244
DA:75,244
DA:78,244
DA:79,244
DA:80,244
DA:81,244
DA:82,244
DA:83,244
DA:84,244
DA:85,244
DA:87,1010
DA:88,767
DA:89,236
DA:90,236
DA:91,236
DA:92,236
DA:93,257
DA:94,257
DA:95,257
DA:96,273
DA:97,1
DA:101,243
DA:102,9
DA:103,234
DA:104,234
DA:105,234
DA:106,234
DA:107,234
DA:108,234
DA:109,234
DA:110,234
DA:111,1
DA:112,1
DA:113,1
DA:114,233
DA:115,233
DA:116,233
DA:117,233
DA:118,233
DA:119,233
DA:120,233
DA:121,244
DA:129,767
DA:130,767
DA:131,257
DA:132,257
DA:133,257
DA:134,257
DA:135,257
DA:137,510
DA:138,236
DA:139,273
DA:140,1
DA:143,767
DA:146,510
DA:147,510
DA:148,14
DA:149,221
DA:150,5
DA:151,270
DA:154,240
DA:155,236
DA:156,4
DA:157,3
DA:158,1
DA:161,510
DA:185,31
DA:186,31
DA:187,0
DA:188,1
DA:189,6
DA:190,5
DA:191,0
DA:192,0
DA:193,12
DA:194,7
DA:195,7
DA:198,31
DA:211,1
DA:212,1
DA:213,1
DA:214,1
DA:215,1
DA:216,1
DA:217,1
DA:218,1
DA:221,1
DA:222,1
DA:223,1
DA:224,1
DA:225,1
DA:226,1
DA:229,1
DA:230,1
DA:231,1
DA:232,1
DA:233,1
DA:234,1
DA:237,1
DA:238,1
DA:239,1
DA:240,1
DA:241,1
DA:242,1
DA:245,1
DA:246,1
DA:247,1
DA:248,1
DA:249,1
DA:250,1
DA:253,1
DA:254,1
DA:255,1
DA:256,1
DA:257,1
DA:258,1
DA:260,7
DA:279,1
DA:280,1
DA:281,1
DA:282,1
DA:283,1
DA:284,1
DA:285,1
DA:287,6
DA:299,1
DA:300,1
DA:301,1
DA:302,1
DA:303,1
DA:304,1
DA:305,1
DA:308,1
DA:309,1
DA:310,1
DA:311,1
DA:312,1
DA:313,1
DA:314,1
DA:320,1
DA:321,1
DA:322,1
DA:323,1
DA:324,1
DA:325,1
DA:328,1
DA:329,1
DA:330,1
DA:331,1
DA:332,1
DA:333,1
DA:336,1
DA:337,1
DA:338,1
DA:339,1
DA:340,1
DA:341,1
DA:352,22
DA:353,22
DA:354,22
DA:355,22
DA:356,22
DA:358,22
DA:359,22
DA:360,22
DA:361,22
DA:369,9
DA:370,9
DA:371,9
DA:372,9
DA:373,9
DA:375,7
DA:376,7
DA:377,7
DA:378,7
DA:380,6
DA:381,6
DA:382,6
DA:383,6
DA:387,5
DA:388,5
DA:389,5
DA:390,5
DA:392,4
DA:393,4
DA:394,4
DA:395,4
DA:397,1
DA:398,1
DA:399,1
DA:400,1
DA:402,1
DA:403,1
DA:404,1
DA:405,1
DA:413,1
DA:414,1
DA:415,1
DA:416,1
DA:417,1
DA:418,1
DA:421,1
DA:422,1
DA:423,1
DA:424,1
BRF:0
BRH:0
LF:242
LH:226
end_of_record
SF:/Users/hans/dev/rust/time-tracker/src/domain/reporting.rs
FN:72,_RINvMNtNtCs32R6rcQHX2H_12time_tracker6domain9reportingNtB3_11TrackedTime12sort_by_timepEB7_
FN:78,_RNCINvMNtNtCs32R6rcQHX2H_12time_tracker6domain9reportingNtB5_11TrackedTime12sort_by_timepE0B9_
FN:61,_RNCNvMNtNtCs32R6rcQHX2H_12time_tracker6domain9reportingNtB4_11TrackedTime26calculate_totals_for_tasks0B8_
FN:66,_RNCNvMNtNtCs32R6rcQHX2H_12time_tracker6domain9reportingNtB4_11TrackedTime26calculate_totals_for_taskss_0B8_
FN:52,_RNCNvMNtNtCs32R6rcQHX2H_12time_tracker6domain9reportingNtB4_11TrackedTime27summarize_tasks_for_context0B8_
FN:240,_RNCNvMs2_NtNtCs32R6rcQHX2H_12time_tracker6domain9reportingNtB7_23TaskSummariesForContext13total_minutes0Bb_
FN:34,_RNvMNtNtCs32R6rcQHX2H_12time_tracker6domain9reportingNtB2_11TrackedTime17tasks_tracked_for
FN:58,_RNvMNtNtCs32R6rcQHX2H_12time_tracker6domain9reportingNtB2_11TrackedTime26calculate_totals_for_tasks
FN:45,_RNvMNtNtCs32R6rcQHX2H_12time_tracker6domain9reportingNtB2_11TrackedTime27summarize_tasks_for_context
FN:215,_RNvMs1_NtNtCs32R6rcQHX2H_12time_tracker6domain9reportingNtB5_12DetailReport13total_minutes
FN:195,_RNvMs1_NtNtCs32R6rcQHX2H_12time_tracker6domain9reportingNtB5_12DetailReport3new
FN:211,_RNvMs1_NtNtCs32R6rcQHX2H_12time_tracker6domain9reportingNtB5_12DetailReport6period
FN:207,_RNvMs1_NtNtCs32R6rcQHX2H_12time_tracker6domain9reportingNtB5_12DetailReport9summaries
FN:239,_RNvMs2_NtNtCs32R6rcQHX2H_12time_tracker6domain9reportingNtB5_23TaskSummariesForContext13total_minutes
FN:235,_RNvMs2_NtNtCs32R6rcQHX2H_12time_tracker6domain9reportingNtB5_23TaskSummariesForContext14task_summaries
FN:227,_RNvMs2_NtNtCs32R6rcQHX2H_12time_tracker6domain9reportingNtB5_23TaskSummariesForContext3new
FN:231,_RNvMs2_NtNtCs32R6rcQHX2H_12time_tracker6domain9reportingNtB5_23TaskSummariesForContext7context
FN:252,_RNvMs3_NtNtCs32R6rcQHX2H_12time_tracker6domain9reportingNtB5_11TaskSummary3new
FN:271,_RNvMs4_NtNtCs32R6rcQHX2H_12time_tracker6domain9reportingNtB5_17PeriodDescription3day
FN:283,_RNvMs4_NtNtCs32R6rcQHX2H_12time_tracker6domain9reportingNtB5_17PeriodDescription7week_of
FN:296,_RNvMs4_NtNtCs32R6rcQHX2H_12time_tracker6domain9reportingNtB5_17PeriodDescription7year_of
FN:290,_RNvMs4_NtNtCs32R6rcQHX2H_12time_tracker6domain9reportingNtB5_17PeriodDescription8month_of
FN:277,_RNvMs4_NtNtCs32R6rcQHX2H_12time_tracker6domain9reportingNtB5_17PeriodDescription9from_date
FN:136,_RNvMs_NtNtCs32R6rcQHX2H_12time_tracker6domain9reportingNtB4_14OverviewReport13total_minutes
FN:132,_RNvMs_NtNtCs32R6rcQHX2H_12time_tracker6domain9reportingNtB4_14OverviewReport16period_requested
FN:128,_RNvMs_NtNtCs32R6rcQHX2H_12time_tracker6domain9reportingNtB4_14OverviewReport6period
FN:302,_RNvNtNtCs32R6rcQHX2H_12time_tracker6domain9reporting10format_day
FN:315,_RNvNtNtCs32R6rcQHX2H_12time_tracker6domain9reporting11format_week
FN:325,_RNvNtNtCs32R6rcQHX2H_12time_tracker6domain9reporting11format_year
FN:321,_RNvNtNtCs32R6rcQHX2H_12time_tracker6domain9reporting12format_month
FN:311,_RNvNtNtCs32R6rcQHX2H_12time_tracker6domain9reporting16format_from_date
FN:307,_RNvNtNtCs32R6rcQHX2H_12time_tracker6domain9reporting17format_yyyy_mm_dd
FN:330,_RNvXs5_NtNtCs32R6rcQHX2H_12time_tracker6domain9reportingNtB5_17PeriodDescriptionNtNtCsaTRkahAGrLL_4core3fmt7Display3fmt
FN:25,_RNvMNtNtCs32R6rcQHX2H_12time_tracker6domain9reportingNtB2_11TrackedTime3new
FN:179,_RNvMs0_NtNtCs32R6rcQHX2H_12time_tracker6domain9reportingNtB5_14ContextSummary3new
FN:344,_RNvMs6_NtNtCs32R6rcQHX2H_12time_tracker6domain9reportingNtB5_14TrackingPeriod3new
FN:90,_RNvMs_NtNtCs32R6rcQHX2H_12time_tracker6domain9reportingNtB4_14OverviewReport8overview
FN:124,_RNvMs_NtNtCs32R6rcQHX2H_12time_tracker6domain9reportingNtB4_14OverviewReport9summaries
FN:161,_RNvNtNtCs32R6rcQHX2H_12time_tracker6domain9reporting17summarize_entries
FN:262,_RNvNtNtCs32R6rcQHX2H_12time_tracker6domain9reporting20calculate_percentage
FN:141,_RNvNtNtCs32R6rcQHX2H_12time_tracker6domain9reporting23limit_number_of_entries
FN:26,_RNCNvMNtNtCs32R6rcQHX2H_12time_tracker6domain9reportingNtB4_11TrackedTime3new0B8_
FN:99,_RNCNvMs_NtNtCs32R6rcQHX2H_12time_tracker6domain9reportingNtB6_14OverviewReport8overview0Ba_
FN:102,_RNCNvMs_NtNtCs32R6rcQHX2H_12time_tracker6domain9reportingNtB6_14OverviewReport8overviews_0Ba_
FN:34,_RNvMNtNtCseOvZ2GYdjRc_12time_tracker6domain9reportingNtB2_11TrackedTime17tasks_tracked_for
FN:58,_RNvMNtNtCseOvZ2GYdjRc_12time_tracker6domain9reportingNtB2_11TrackedTime26calculate_totals_for_tasks
FN:45,_RNvMNtNtCseOvZ2GYdjRc_12time_tracker6domain9reportingNtB2_11TrackedTime27summarize_tasks_for_context
FN:25,_RNvMNtNtCseOvZ2GYdjRc_12time_tracker6domain9reportingNtB2_11TrackedTime3new
FN:179,_RNvMs0_NtNtCseOvZ2GYdjRc_12time_tracker6domain9reportingNtB5_14ContextSummary3new
FN:215,_RNvMs1_NtNtCseOvZ2GYdjRc_12time_tracker6domain9reportingNtB5_12DetailReport13total_minutes
FN:195,_RNvMs1_NtNtCseOvZ2GYdjRc_12time_tracker6domain9reportingNtB5_12DetailReport3new
FN:211,_RNvMs1_NtNtCseOvZ2GYdjRc_12time_tracker6domain9reportingNtB5_12DetailReport6period
FN:207,_RNvMs1_NtNtCseOvZ2GYdjRc_12time_tracker6domain9reportingNtB5_12DetailReport9summaries
FN:239,_RNvMs2_NtNtCseOvZ2GYdjRc_12time_tracker6domain9reportingNtB5_23TaskSummariesForContext13total_minutes
FN:235,_RNvMs2_NtNtCseOvZ2GYdjRc_12time_tracker6domain9reportingNtB5_23TaskSummariesForContext14task_summaries
FN:227,_RNvMs2_NtNtCseOvZ2GYdjRc_12time_tracker6domain9reportingNtB5_23TaskSummariesForContext3new
FN:231,_RNvMs2_NtNtCseOvZ2GYdjRc_12time_tracker6domain9reportingNtB5_23TaskSummariesForContext7context
FN:252,_RNvMs3_NtNtCseOvZ2GYdjRc_12time_tracker6domain9reportingNtB5_11TaskSummary3new
FN:271,_RNvMs4_NtNtCseOvZ2GYdjRc_12time_tracker6domain9reportingNtB5_17PeriodDescription3day
FN:283,_RNvMs4_NtNtCseOvZ2GYdjRc_12time_tracker6domain9reportingNtB5_17PeriodDescription7week_of
FN:296,_RNvMs4_NtNtCseOvZ2GYdjRc_12time_tracker6domain9reportingNtB5_17PeriodDescription7year_of
FN:290,_RNvMs4_NtNtCseOvZ2GYdjRc_12time_tracker6domain9reportingNtB5_17PeriodDescription8month_of
FN:277,_RNvMs4_NtNtCseOvZ2GYdjRc_12time_tracker6domain9reportingNtB5_17PeriodDescription9from_date
FN:344,_RNvMs6_NtNtCseOvZ2GYdjRc_12time_tracker6domain9reportingNtB5_14TrackingPeriod3new
FN:136,_RNvMs_NtNtCseOvZ2GYdjRc_12time_tracker6domain9reportingNtB4_14OverviewReport13total_minutes
FN:132,_RNvMs_NtNtCseOvZ2GYdjRc_12time_tracker6domain9reportingNtB4_14OverviewReport16period_requested
FN:128,_RNvMs_NtNtCseOvZ2GYdjRc_12time_tracker6domain9reportingNtB4_14OverviewReport6period
FN:90,_RNvMs_NtNtCseOvZ2GYdjRc_12time_tracker6domain9reportingNtB4_14OverviewReport8overview
FN:124,_RNvMs_NtNtCseOvZ2GYdjRc_12time_tracker6domain9reportingNtB4_14OverviewReport9summaries
FN:302,_RNvNtNtCseOvZ2GYdjRc_12time_tracker6domain9reporting10format_day
FN:315,_RNvNtNtCseOvZ2GYdjRc_12time_tracker6domain9reporting11format_week
FN:325,_RNvNtNtCseOvZ2GYdjRc_12time_tracker6domain9reporting11format_year
FN:321,_RNvNtNtCseOvZ2GYdjRc_12time_tracker6domain9reporting12format_month
FN:311,_RNvNtNtCseOvZ2GYdjRc_12time_tracker6domain9reporting16format_from_date
FN:307,_RNvNtNtCseOvZ2GYdjRc_12time_tracker6domain9reporting17format_yyyy_mm_dd
FN:161,_RNvNtNtCseOvZ2GYdjRc_12time_tracker6domain9reporting17summarize_entries
FN:262,_RNvNtNtCseOvZ2GYdjRc_12time_tracker6domain9reporting20calculate_percentage
FN:141,_RNvNtNtCseOvZ2GYdjRc_12time_tracker6domain9reporting23limit_number_of_entries
FN:330,_RNvXs5_NtNtCseOvZ2GYdjRc_12time_tracker6domain9reportingNtB5_17PeriodDescriptionNtNtCsaTRkahAGrLL_4core3fmt7Display3fmt
FN:72,_RINvMNtNtCseOvZ2GYdjRc_12time_tracker6domain9reportingNtB3_11TrackedTime12sort_by_timeNCNvB2_27summarize_tasks_for_context0EB7_
FN:78,_RNCINvMNtNtCseOvZ2GYdjRc_12time_tracker6domain9reportingNtB5_11TrackedTime12sort_by_timeNCNvB4_27summarize_tasks_for_context0E0B9_
FN:61,_RNCNvMNtNtCseOvZ2GYdjRc_12time_tracker6domain9reportingNtB4_11TrackedTime26calculate_totals_for_tasks0B8_
FN:66,_RNCNvMNtNtCseOvZ2GYdjRc_12time_tracker6domain9reportingNtB4_11TrackedTime26calculate_totals_for_taskss_0B8_
FN:52,_RNCNvMNtNtCseOvZ2GYdjRc_12time_tracker6domain9reportingNtB4_11TrackedTime27summarize_tasks_for_context0B8_
FN:26,_RNCNvMNtNtCseOvZ2GYdjRc_12time_tracker6domain9reportingNtB4_11TrackedTime3new0B8_
FN:240,_RNCNvMs2_NtNtCseOvZ2GYdjRc_12time_tracker6domain9reportingNtB7_23TaskSummariesForContext13total_minutes0Bb_
FN:99,_RNCNvMs_NtNtCseOvZ2GYdjRc_12time_tracker6domain9reportingNtB6_14OverviewReport8overview0Ba_
FN:102,_RNCNvMs_NtNtCseOvZ2GYdjRc_12time_tracker6domain9reportingNtB6_14OverviewReport8overviews_0Ba_
FNDA:0,_RINvMNtNtCs32R6rcQHX2H_12time_tracker6domain9reportingNtB3_11TrackedTime12sort_by_timepEB7_
FNDA:0,_RNCINvMNtNtCs32R6rcQHX2H_12time_tracker6domain9reportingNtB5_11TrackedTime12sort_by_timepE0B9_
FNDA:0,_RNCNvMNtNtCs32R6rcQHX2H_12time_tracker6domain9reportingNtB4_11TrackedTime26calculate_totals_for_tasks0B8_
FNDA:0,_RNCNvMNtNtCs32R6rcQHX2H_12time_tracker6domain9reportingNtB4_11TrackedTime26calculate_totals_for_taskss_0B8_
FNDA:0,_RNCNvMNtNtCs32R6rcQHX2H_12time_tracker6domain9reportingNtB4_11TrackedTime27summarize_tasks_for_context0B8_
FNDA:0,_RNCNvMs2_NtNtCs32R6rcQHX2H_12time_tracker6domain9reportingNtB7_23TaskSummariesForContext13total_minutes0Bb_
FNDA:0,_RNvMNtNtCs32R6rcQHX2H_12time_tracker6domain9reportingNtB2_11TrackedTime17tasks_tracked_for
FNDA:0,_RNvMNtNtCs32R6rcQHX2H_12time_tracker6domain9reportingNtB2_11TrackedTime26calculate_totals_for_tasks
FNDA:0,_RNvMNtNtCs32R6rcQHX2H_12time_tracker6domain9reportingNtB2_11TrackedTime27summarize_tasks_for_context
FNDA:0,_RNvMs1_NtNtCs32R6rcQHX2H_12time_tracker6domain9reportingNtB5_12DetailReport13total_minutes
FNDA:0,_RNvMs1_NtNtCs32R6rcQHX2H_12time_tracker6domain9reportingNtB5_12DetailReport3new
FNDA:0,_RNvMs1_NtNtCs32R6rcQHX2H_12time_tracker6domain9reportingNtB5_12DetailReport6period
FNDA:0,_RNvMs1_NtNtCs32R6rcQHX2H_12time_tracker6domain9reportingNtB5_12DetailReport9summaries
FNDA:0,_RNvMs2_NtNtCs32R6rcQHX2H_12time_tracker6domain9reportingNtB5_23TaskSummariesForContext13total_minutes
FNDA:0,_RNvMs2_NtNtCs32R6rcQHX2H_12time_tracker6domain9reportingNtB5_23TaskSummariesForContext14task_summaries
FNDA:0,_RNvMs2_NtNtCs32R6rcQHX2H_12time_tracker6domain9reportingNtB5_23TaskSummariesForContext3new
FNDA:0,_RNvMs2_NtNtCs32R6rcQHX2H_12time_tracker6domain9reportingNtB5_23TaskSummariesForContext7context
FNDA:0,_RNvMs3_NtNtCs32R6rcQHX2H_12time_tracker6domain9reportingNtB5_11TaskSummary3new
FNDA:0,_RNvMs4_NtNtCs32R6rcQHX2H_12time_tracker6domain9reportingNtB5_17PeriodDescription3day
FNDA:0,_RNvMs4_NtNtCs32R6rcQHX2H_12time_tracker6domain9reportingNtB5_17PeriodDescription7week_of
FNDA:0,_RNvMs4_NtNtCs32R6rcQHX2H_12time_tracker6domain9reportingNtB5_17PeriodDescription7year_of
FNDA:0,_RNvMs4_NtNtCs32R6rcQHX2H_12time_tracker6domain9reportingNtB5_17PeriodDescription8month_of
FNDA:0,_RNvMs4_NtNtCs32R6rcQHX2H_12time_tracker6domain9reportingNtB5_17PeriodDescription9from_date
FNDA:0,_RNvMs_NtNtCs32R6rcQHX2H_12time_tracker6domain9reportingNtB4_14OverviewReport13total_minutes
FNDA:0,_RNvMs_NtNtCs32R6rcQHX2H_12time_tracker6domain9reportingNtB4_14OverviewReport16period_requested
FNDA:0,_RNvMs_NtNtCs32R6rcQHX2H_12time_tracker6domain9reportingNtB4_14OverviewReport6period
FNDA:0,_RNvNtNtCs32R6rcQHX2H_12time_tracker6domain9reporting10format_day
FNDA:0,_RNvNtNtCs32R6rcQHX2H_12time_tracker6domain9reporting11format_week
FNDA:0,_RNvNtNtCs32R6rcQHX2H_12time_tracker6domain9reporting11format_year
FNDA:0,_RNvNtNtCs32R6rcQHX2H_12time_tracker6domain9reporting12format_month
FNDA:0,_RNvNtNtCs32R6rcQHX2H_12time_tracker6domain9reporting16format_from_date
FNDA:0,_RNvNtNtCs32R6rcQHX2H_12time_tracker6domain9reporting17format_yyyy_mm_dd
FNDA:0,_RNvXs5_NtNtCs32R6rcQHX2H_12time_tracker6domain9reportingNtB5_17PeriodDescriptionNtNtCsaTRkahAGrLL_4core3fmt7Display3fmt
FNDA:1,_RNvMNtNtCs32R6rcQHX2H_12time_tracker6domain9reportingNtB2_11TrackedTime3new
FNDA:4,_RNvMs0_NtNtCs32R6rcQHX2H_12time_tracker6domain9reportingNtB5_14ContextSummary3new
FNDA:1,_RNvMs6_NtNtCs32R6rcQHX2H_12time_tracker6domain9reportingNtB5_14TrackingPeriod3new
FNDA:1,_RNvMs_NtNtCs32R6rcQHX2H_12time_tracker6domain9reportingNtB4_14OverviewReport8overview
FNDA:1,_RNvMs_NtNtCs32R6rcQHX2H_12time_tracker6domain9reportingNtB4_14OverviewReport9summaries
FNDA:1,_RNvNtNtCs32R6rcQHX2H_12time_tracker6domain9reporting17summarize_entries
FNDA:4,_RNvNtNtCs32R6rcQHX2H_12time_tracker6domain9reporting20calculate_percentage
FNDA:0,_RNvNtNtCs32R6rcQHX2H_12time_tracker6domain9reporting23limit_number_of_entries
FNDA:4,_RNCNvMNtNtCs32R6rcQHX2H_12time_tracker6domain9reportingNtB4_11TrackedTime3new0B8_
FNDA:4,_RNCNvMs_NtNtCs32R6rcQHX2H_12time_tracker6domain9reportingNtB6_14OverviewReport8overview0Ba_
FNDA:4,_RNCNvMs_NtNtCs32R6rcQHX2H_12time_tracker6domain9reportingNtB6_14OverviewReport8overviews_0Ba_
FNDA:11,_RNvMNtNtCseOvZ2GYdjRc_12time_tracker6domain9reportingNtB2_11TrackedTime17tasks_tracked_for
FNDA:12,_RNvMNtNtCseOvZ2GYdjRc_12time_tracker6domain9reportingNtB2_11TrackedTime26calculate_totals_for_tasks
FNDA:12,_RNvMNtNtCseOvZ2GYdjRc_12time_tracker6domain9reportingNtB2_11TrackedTime27summarize_tasks_for_context
FNDA:92,_RNvMNtNtCseOvZ2GYdjRc_12time_tracker6domain9reportingNtB2_11TrackedTime3new
FNDA:95,_RNvMs0_NtNtCseOvZ2GYdjRc_12time_tracker6domain9reportingNtB5_14ContextSummary3new
FNDA:0,_RNvMs1_NtNtCseOvZ2GYdjRc_12time_tracker6domain9reportingNtB5_12DetailReport13total_minutes
FNDA:11,_RNvMs1_NtNtCseOvZ2GYdjRc_12time_tracker6domain9reportingNtB5_12DetailReport3new
FNDA:12,_RNvMs1_NtNtCseOvZ2GYdjRc_12time_tracker6domain9reportingNtB5_12DetailReport6period
FNDA:11,_RNvMs1_NtNtCseOvZ2GYdjRc_12time_tracker6domain9reportingNtB5_12DetailReport9summaries
FNDA:12,_RNvMs2_NtNtCseOvZ2GYdjRc_12time_tracker6domain9reportingNtB5_23TaskSummariesForContext13total_minutes
FNDA:12,_RNvMs2_NtNtCseOvZ2GYdjRc_12time_tracker6domain9reportingNtB5_23TaskSummariesForContext14task_summaries
FNDA:12,_RNvMs2_NtNtCseOvZ2GYdjRc_12time_tracker6domain9reportingNtB5_23TaskSummariesForContext3new
FNDA:12,_RNvMs2_NtNtCseOvZ2GYdjRc_12time_tracker6domain9reportingNtB5_23TaskSummariesForContext7context
FNDA:13,_RNvMs3_NtNtCseOvZ2GYdjRc_12time_tracker6domain9reportingNtB5_11TaskSummary3new
FNDA:14,_RNvMs4_NtNtCseOvZ2GYdjRc_12time_tracker6domain9reportingNtB5_17PeriodDescription3day
FNDA:7,_RNvMs4_NtNtCseOvZ2GYdjRc_12time_tracker6domain9reportingNtB5_17PeriodDescription7week_of
FNDA:2,_RNvMs4_NtNtCseOvZ2GYdjRc_12time_tracker6domain9reportingNtB5_17PeriodDescription7year_of
FNDA:23,_RNvMs4_NtNtCseOvZ2GYdjRc_12time_tracker6domain9reportingNtB5_17PeriodDescription8month_of
FNDA:2,_RNvMs4_NtNtCseOvZ2GYdjRc_12time_tracker6domain9reportingNtB5_17PeriodDescription9from_date
FNDA:92,_RNvMs6_NtNtCseOvZ2GYdjRc_12time_tracker6domain9reportingNtB5_14TrackingPeriod3new
FNDA:81,_RNvMs_NtNtCseOvZ2GYdjRc_12time_tracker6domain9reportingNtB4_14OverviewReport13total_minutes
FNDA:80,_RNvMs_NtNtCseOvZ2GYdjRc_12time_tracker6domain9reportingNtB4_14OverviewReport16period_requested
FNDA:81,_RNvMs_NtNtCseOvZ2GYdjRc_12time_tracker6domain9reportingNtB4_14OverviewReport6period
FNDA:81,_RNvMs_NtNtCseOvZ2GYdjRc_12time_tracker6domain9reportingNtB4_14OverviewReport8overview
FNDA:81,_RNvMs_NtNtCseOvZ2GYdjRc_12time_tracker6domain9reportingNtB4_14OverviewReport9summaries
FNDA:14,_RNvNtNtCseOvZ2GYdjRc_12time_tracker6domain9reporting10format_day
FNDA:7,_RNvNtNtCseOvZ2GYdjRc_12time_tracker6domain9reporting11format_week
FNDA:2,_RNvNtNtCseOvZ2GYdjRc_12time_tracker6domain9reporting11format_year
FNDA:23,_RNvNtNtCseOvZ2GYdjRc_12time_tracker6domain9reporting12format_month
FNDA:2,_RNvNtNtCseOvZ2GYdjRc_12time_tracker6domain9reporting16format_from_date
FNDA:16,_RNvNtNtCseOvZ2GYdjRc_12time_tracker6domain9reporting17format_yyyy_mm_dd
FNDA:81,_RNvNtNtCseOvZ2GYdjRc_12time_tracker6domain9reporting17summarize_entries
FNDA:108,_RNvNtNtCseOvZ2GYdjRc_12time_tracker6domain9reporting20calculate_percentage
FNDA:3,_RNvNtNtCseOvZ2GYdjRc_12time_tracker6domain9reporting23limit_number_of_entries
FNDA:48,_RNvXs5_NtNtCseOvZ2GYdjRc_12time_tracker6domain9reportingNtB5_17PeriodDescriptionNtNtCsaTRkahAGrLL_4core3fmt7Display3fmt
FNDA:12,_RINvMNtNtCseOvZ2GYdjRc_12time_tracker6domain9reportingNtB3_11TrackedTime12sort_by_timeNCNvB2_27summarize_tasks_for_context0EB7_
FNDA:1,_RNCINvMNtNtCseOvZ2GYdjRc_12time_tracker6domain9reportingNtB5_11TrackedTime12sort_by_timeNCNvB4_27summarize_tasks_for_context0E0B9_
FNDA:16,_RNCNvMNtNtCseOvZ2GYdjRc_12time_tracker6domain9reportingNtB4_11TrackedTime26calculate_totals_for_tasks0B8_
FNDA:1,_RNCNvMNtNtCseOvZ2GYdjRc_12time_tracker6domain9reportingNtB4_11TrackedTime26calculate_totals_for_taskss_0B8_
FNDA:13,_RNCNvMNtNtCseOvZ2GYdjRc_12time_tracker6domain9reportingNtB4_11TrackedTime27summarize_tasks_for_context0B8_
FNDA:130,_RNCNvMNtNtCseOvZ2GYdjRc_12time_tracker6domain9reportingNtB4_11TrackedTime3new0B8_
FNDA:13,_RNCNvMs2_NtNtCseOvZ2GYdjRc_12time_tracker6domain9reportingNtB7_23TaskSummariesForContext13total_minutes0Bb_
FNDA:95,_RNCNvMs_NtNtCseOvZ2GYdjRc_12time_tracker6domain9reportingNtB6_14OverviewReport8overview0Ba_
FNDA:17,_RNCNvMs_NtNtCseOvZ2GYdjRc_12time_tracker6domain9reportingNtB6_14OverviewReport8overviews_0Ba_
FNF:44
FNH:43
DA:25,93
DA:26,134
DA:27,93
DA:28,93
DA:29,93
DA:30,93
DA:31,93
DA:32,93
DA:34,11
DA:35,11
DA:37,12
DA:38,12
DA:39,12
DA:40,12
DA:42,11
DA:43,11
DA:45,12
DA:46,12
DA:47,12
DA:48,12
DA:49,12
DA:50,12
DA:51,12
DA:52,13
DA:53,12
DA:54,12
DA:55,12
DA:56,12
DA:58,12
DA:59,12
DA:60,12
DA:61,16
DA:62,26
DA:63,14
DA:64,14
DA:65,14
DA:66,14
DA:67,14
DA:68,14
DA:69,12
DA:70,12
DA:72,12
DA:73,12
DA:74,12
DA:75,12
DA:76,12
DA:77,12
DA:78,12
DA:79,12
DA:90,82
DA:91,82
DA:92,82
DA:93,82
DA:94,82
DA:95,82
DA:96,82
DA:97,82
DA:98,82
DA:99,99
DA:100,99
DA:101,99
DA:102,82
DA:103,21
DA:104,21
DA:105,21
DA:106,82
DA:108,82
DA:109,3
DA:110,3
DA:111,3
DA:113,79
DA:116,82
DA:117,82
DA:118,82
DA:119,82
DA:120,82
DA:121,82
DA:122,82
DA:124,82
DA:125,82
DA:126,82
DA:128,81
DA:129,81
DA:130,81
DA:132,80
DA:133,80
DA:134,80
DA:136,81
DA:137,81
DA:138,81
DA:141,3
DA:142,3
DA:143,3
DA:144,3
DA:145,3
DA:146,3
DA:147,3
DA:149,4
DA:150,4
DA:151,4
DA:152,4
DA:153,4
DA:154,4
DA:155,3
DA:156,1
DA:158,3
DA:159,3
DA:161,82
DA:162,82
DA:164,202
DA:165,120
DA:166,120
DA:168,82
DA:169,82
DA:179,99
DA:180,99
DA:181,99
DA:182,99
DA:183,99
DA:184,99
DA:185,99
DA:195,11
DA:196,11
DA:197,11
DA:198,11
DA:199,11
DA:200,11
DA:201,11
DA:202,11
DA:203,11
DA:204,11
DA:205,11
DA:207,11
DA:208,11
DA:209,11
DA:211,12
DA:212,12
DA:213,12
DA:215,0
DA:216,0
DA:217,0
DA:227,12
DA:228,12
DA:229,12
DA:231,12
DA:232,12
DA:233,12
DA:235,12
DA:236,12
DA:237,12
DA:239,12
DA:240,13
DA:241,12
DA:252,13
DA:253,13
DA:254,13
DA:255,13
DA:256,13
DA:257,13
DA:258,13
DA:262,112
DA:263,112
DA:264,112
DA:271,14
DA:272,14
DA:273,14
DA:274,14
DA:277,2
DA:278,2
DA:279,2
DA:280,2
DA:283,7
DA:284,7
DA:285,7
DA:286,7
DA:287,7
DA:290,23
DA:291,23
DA:292,23
DA:293,23
DA:296,2
DA:297,2
DA:298,2
DA:299,2
DA:302,14
DA:303,14
DA:304,14
DA:305,14
DA:307,16
DA:308,16
DA:309,16
DA:311,2
DA:312,2
DA:313,2
DA:315,7
DA:316,7
DA:317,7
DA:318,7
DA:319,7
DA:321,23
DA:322,23
DA:323,23
DA:325,2
DA:326,2
DA:327,2
DA:330,48
DA:331,48
DA:332,48
DA:344,93
DA:345,93
DA:346,93
BRF:0
BRH:0
LF:221
LH:218
end_of_record
SF:/Users/hans/dev/rust/time-tracker/src/domain/tags.rs
FN:54,_RNCNvMs0_NtNtCs32R6rcQHX2H_12time_tracker6domain4tagsNtB7_9TagFilter5parse0Bb_
FN:22,_RNvMNtNtCs32R6rcQHX2H_12time_tracker6domain4tagsNtB2_3Tag10is_actvity
FN:18,_RNvMNtNtCs32R6rcQHX2H_12time_tracker6domain4tagsNtB2_3Tag10is_project
FN:26,_RNvMNtNtCs32R6rcQHX2H_12time_tracker6domain4tagsNtB2_3Tag4name
FN:58,_RNvMs0_NtNtCs32R6rcQHX2H_12time_tracker6domain4tagsNtB5_9TagFilter11filter_tags
FN:70,_RNvMs0_NtNtCs32R6rcQHX2H_12time_tracker6domain4tagsNtB5_9TagFilter4tags
FN:53,_RNvMs0_NtNtCs32R6rcQHX2H_12time_tracker6domain4tagsNtB5_9TagFilter5parse
FN:64,_RNvMs0_NtNtCs32R6rcQHX2H_12time_tracker6domain4tagsNtB5_9TagFilter7project
FN:42,_RNvXs_NtNtCs32R6rcQHX2H_12time_tracker6domain4tagsNtB4_3TagNtNtCsaTRkahAGrLL_4core3fmt7Display3fmt
FN:10,_RNvMNtNtCs32R6rcQHX2H_12time_tracker6domain4tagsNtB2_3Tag8from_raw
FN:33,_RNvMNtNtCs32R6rcQHX2H_12time_tracker6domain4tagsNtB2_3Tag9raw_value
FN:22,_RNvMNtNtCseOvZ2GYdjRc_12time_tracker6domain4tagsNtB2_3Tag10is_actvity
FN:18,_RNvMNtNtCseOvZ2GYdjRc_12time_tracker6domain4tagsNtB2_3Tag10is_project
FN:26,_RNvMNtNtCseOvZ2GYdjRc_12time_tracker6domain4tagsNtB2_3Tag4name
FN:10,_RNvMNtNtCseOvZ2GYdjRc_12time_tracker6domain4tagsNtB2_3Tag8from_raw
FN:33,_RNvMNtNtCseOvZ2GYdjRc_12time_tracker6domain4tagsNtB2_3Tag9raw_value
FN:58,_RNvMs0_NtNtCseOvZ2GYdjRc_12time_tracker6domain4tagsNtB5_9TagFilter11filter_tags
FN:70,_RNvMs0_NtNtCseOvZ2GYdjRc_12time_tracker6domain4tagsNtB5_9TagFilter4tags
FN:53,_RNvMs0_NtNtCseOvZ2GYdjRc_12time_tracker6domain4tagsNtB5_9TagFilter5parse
FN:64,_RNvMs0_NtNtCseOvZ2GYdjRc_12time_tracker6domain4tagsNtB5_9TagFilter7project
FN:42,_RNvXs_NtNtCseOvZ2GYdjRc_12time_tracker6domain4tagsNtB4_3TagNtNtCsaTRkahAGrLL_4core3fmt7Display3fmt
FN:54,_RNCNvMs0_NtNtCseOvZ2GYdjRc_12time_tracker6domain4tagsNtB7_9TagFilter5parse0Bb_
FNDA:0,_RNCNvMs0_NtNtCs32R6rcQHX2H_12time_tracker6domain4tagsNtB7_9TagFilter5parse0Bb_
FNDA:0,_RNvMNtNtCs32R6rcQHX2H_12time_tracker6domain4tagsNtB2_3Tag10is_actvity
FNDA:0,_RNvMNtNtCs32R6rcQHX2H_12time_tracker6domain4tagsNtB2_3Tag10is_project
FNDA:0,_RNvMNtNtCs32R6rcQHX2H_12time_tracker6domain4tagsNtB2_3Tag4name
FNDA:0,_RNvMs0_NtNtCs32R6rcQHX2H_12time_tracker6domain4tagsNtB5_9TagFilter11filter_tags
FNDA:0,_RNvMs0_NtNtCs32R6rcQHX2H_12time_tracker6domain4tagsNtB5_9TagFilter4tags
FNDA:0,_RNvMs0_NtNtCs32R6rcQHX2H_12time_tracker6domain4tagsNtB5_9TagFilter5parse
FNDA:0,_RNvMs0_NtNtCs32R6rcQHX2H_12time_tracker6domain4tagsNtB5_9TagFilter7project
FNDA:0,_RNvXs_NtNtCs32R6rcQHX2H_12time_tracker6domain4tagsNtB4_3TagNtNtCsaTRkahAGrLL_4core3fmt7Display3fmt
FNDA:23,_RNvMNtNtCs32R6rcQHX2H_12time_tracker6domain4tagsNtB2_3Tag8from_raw
FNDA:23,_RNvMNtNtCs32R6rcQHX2H_12time_tracker6domain4tagsNtB2_3Tag9raw_value
FNDA:0,_RNvMNtNtCseOvZ2GYdjRc_12time_tracker6domain4tagsNtB2_3Tag10is_actvity
FNDA:0,_RNvMNtNtCseOvZ2GYdjRc_12time_tracker6domain4tagsNtB2_3Tag10is_project
FNDA:0,_RNvMNtNtCseOvZ2GYdjRc_12time_tracker6domain4tagsNtB2_3Tag4name
FNDA:261,_RNvMNtNtCseOvZ2GYdjRc_12time_tracker6domain4tagsNtB2_3Tag8from_raw
FNDA:347,_RNvMNtNtCseOvZ2GYdjRc_12time_tracker6domain4tagsNtB2_3Tag9raw_value
FNDA:15,_RNvMs0_NtNtCseOvZ2GYdjRc_12time_tracker6domain4tagsNtB5_9TagFilter11filter_tags
FNDA:15,_RNvMs0_NtNtCseOvZ2GYdjRc_12time_tracker6domain4tagsNtB5_9TagFilter4tags
FNDA:15,_RNvMs0_NtNtCseOvZ2GYdjRc_12time_tracker6domain4tagsNtB5_9TagFilter5parse
FNDA:0,_RNvMs0_NtNtCseOvZ2GYdjRc_12time_tracker6domain4tagsNtB5_9TagFilter7project
FNDA:0,_RNvXs_NtNtCseOvZ2GYdjRc_12time_tracker6domain4tagsNtB4_3TagNtNtCsaTRkahAGrLL_4core3fmt7Display3fmt
FNDA:17,_RNCNvMs0_NtNtCseOvZ2GYdjRc_12time_tracker6domain4tagsNtB7_9TagFilter5parse0Bb_
FNF:11
FNH:6
DA:10,284
DA:11,284
DA:12,35
DA:14,249
DA:16,284
DA:18,0
DA:19,0
DA:20,0
DA:22,0
DA:23,0
DA:24,0
DA:26,0
DA:27,0
DA:28,0
DA:29,0
DA:31,0
DA:33,370
DA:34,370
DA:35,63
DA:36,307
DA:38,370
DA:42,0
DA:43,0
DA:44,0
DA:53,15
DA:54,17
DA:55,15
DA:56,15
DA:58,15
DA:59,15
DA:60,15
DA:61,15
DA:62,15
DA:64,0
DA:65,0
DA:66,0
DA:67,0
DA:68,0
DA:70,15
DA:71,15
DA:72,15
DA:73,15
DA:74,15
BRF:0
BRH:0
LF:44
LH:25
end_of_record
SF:/Users/hans/dev/rust/time-tracker/src/domain/time.rs
FN:15,_RNvMNtNtCs32R6rcQHX2H_12time_tracker6domain4timeNtB2_5Clock10with_today
FN:11,_RNvMNtNtCs32R6rcQHX2H_12time_tracker6domain4timeNtB2_5Clock6system
FN:22,_RNvMs_NtNtCs32R6rcQHX2H_12time_tracker6domain4timeNtB4_5Clock5today
FN:15,_RNvMNtNtCseOvZ2GYdjRc_12time_tracker6domain4timeNtB2_5Clock10with_today
FN:11,_RNvMNtNtCseOvZ2GYdjRc_12time_tracker6domain4timeNtB2_5Clock6system
FN:22,_RNvMs_NtNtCseOvZ2GYdjRc_12time_tracker6domain4timeNtB4_5Clock5today
FNDA:0,_RNvMNtNtCs32R6rcQHX2H_12time_tracker6domain4timeNtB2_5Clock10with_today
FNDA:0,_RNvMNtNtCs32R6rcQHX2H_12time_tracker6domain4timeNtB2_5Clock6system
FNDA:0,_RNvMs_NtNtCs32R6rcQHX2H_12time_tracker6domain4timeNtB4_5Clock5today
FNDA:52,_RNvMNtNtCseOvZ2GYdjRc_12time_tracker6domain4timeNtB2_5Clock10with_today
FNDA:64,_RNvMNtNtCseOvZ2GYdjRc_12time_tracker6domain4timeNtB2_5Clock6system
FNDA:36,_RNvMs_NtNtCseOvZ2GYdjRc_12time_tracker6domain4timeNtB4_5Clock5today
FNF:3
FNH:3
DA:11,64
DA:12,64
DA:13,64
DA:15,52
DA:16,52
DA:17,52
DA:22,36
DA:23,36
DA:24,0
DA:25,36
DA:27,36
BRF:0
BRH:0
LF:11
LH:10
end_of_record
SF:/Users/hans/dev/rust/time-tracker/src/lib.rs
FN:104,_RNCNvCs32R6rcQHX2H_12time_tracker13create_filter0B3_
FN:107,_RNCNvCs32R6rcQHX2H_12time_tracker13create_filters_0B3_
FN:94,_RNCNvCs32R6rcQHX2H_12time_tracker14print_warnings0B3_
FN:42,_RNCNvCs32R6rcQHX2H_12time_tracker3run0B3_
FN:43,_RNCNvCs32R6rcQHX2H_12time_tracker3runs_0B3_
FN:68,_RNvCs32R6rcQHX2H_12time_tracker12print_result
FN:97,_RNvCs32R6rcQHX2H_12time_tracker13create_filter
FN:91,_RNvCs32R6rcQHX2H_12time_tracker14print_warnings
FN:57,_RNvCs32R6rcQHX2H_12time_tracker14process_inputs
FN:29,_RNvCs32R6rcQHX2H_12time_tracker3run
FN:68,_RNvCseOvZ2GYdjRc_12time_tracker12print_result
FN:97,_RNvCseOvZ2GYdjRc_12time_tracker13create_filter
FN:91,_RNvCseOvZ2GYdjRc_12time_tracker14print_warnings
FN:57,_RNvCseOvZ2GYdjRc_12time_tracker14process_inputs
FN:29,_RNvCseOvZ2GYdjRc_12time_tracker3run
FN:104,_RNCNvCseOvZ2GYdjRc_12time_tracker13create_filter0B3_
FN:107,_RNCNvCseOvZ2GYdjRc_12time_tracker13create_filters_0B3_
FN:94,_RNCNvCseOvZ2GYdjRc_12time_tracker14print_warnings0B3_
FN:42,_RNCNvCseOvZ2GYdjRc_12time_tracker3run0B3_
FN:43,_RNCNvCseOvZ2GYdjRc_12time_tracker3runs_0B3_
FNDA:0,_RNCNvCs32R6rcQHX2H_12time_tracker13create_filter0B3_
FNDA:0,_RNCNvCs32R6rcQHX2H_12time_tracker13create_filters_0B3_
FNDA:0,_RNCNvCs32R6rcQHX2H_12time_tracker14print_warnings0B3_
FNDA:0,_RNCNvCs32R6rcQHX2H_12time_tracker3run0B3_
FNDA:0,_RNCNvCs32R6rcQHX2H_12time_tracker3runs_0B3_
FNDA:0,_RNvCs32R6rcQHX2H_12time_tracker12print_result
FNDA:0,_RNvCs32R6rcQHX2H_12time_tracker13create_filter
FNDA:0,_RNvCs32R6rcQHX2H_12time_tracker14print_warnings
FNDA:0,_RNvCs32R6rcQHX2H_12time_tracker14process_inputs
FNDA:0,_RNvCs32R6rcQHX2H_12time_tracker3run
FNDA:100,_RNvCseOvZ2GYdjRc_12time_tracker12print_result
FNDA:100,_RNvCseOvZ2GYdjRc_12time_tracker13create_filter
FNDA:100,_RNvCseOvZ2GYdjRc_12time_tracker14print_warnings
FNDA:100,_RNvCseOvZ2GYdjRc_12time_tracker14process_inputs
FNDA:100,_RNvCseOvZ2GYdjRc_12time_tracker3run
FNDA:49,_RNCNvCseOvZ2GYdjRc_12time_tracker13create_filter0B3_
FNDA:15,_RNCNvCseOvZ2GYdjRc_12time_tracker13create_filters_0B3_
FNDA:7,_RNCNvCseOvZ2GYdjRc_12time_tracker14print_warnings0B3_
FNDA:15,_RNCNvCseOvZ2GYdjRc_12time_tracker3run0B3_
FNDA:85,_RNCNvCseOvZ2GYdjRc_12time_tracker3runs_0B3_
FNF:10
FNH:10
DA:29,100
DA:30,100
DA:31,100
DA:32,100
DA:33,100
DA:34,100
DA:35,100
DA:36,100
DA:37,100
DA:38,100
DA:40,100
DA:41,100
DA:42,100
DA:43,100
DA:44,100
DA:45,100
DA:46,100
DA:47,100
DA:48,100
DA:49,100
DA:50,100
DA:51,100
DA:52,100
DA:53,100
DA:54,100
DA:55,100
DA:57,100
DA:58,100
DA:59,100
DA:60,100
DA:61,100
DA:62,100
DA:63,100
DA:64,100
DA:65,100
DA:66,100
DA:68,100
DA:69,100
DA:70,100
DA:71,100
DA:72,100
DA:73,100
DA:74,100
DA:75,100
DA:76,100
DA:77,92
DA:78,11
DA:79,11
DA:80,11
DA:81,81
DA:82,81
DA:83,81
DA:84,81
DA:85,81
DA:86,8
DA:87,8
DA:88,8
DA:89,100
DA:91,100
DA:92,100
DA:93,100
DA:94,100
DA:95,100
DA:97,100
DA:98,100
DA:99,100
DA:100,100
DA:101,100
DA:102,100
DA:103,100
DA:104,100
DA:105,100
DA:106,100
DA:107,100
DA:108,100
DA:109,100
DA:110,100
DA:111,100
DA:112,100
DA:113,100
DA:114,100
DA:115,100
BRF:0
BRH:0
LF:87
LH:87
end_of_record
SF:/Users/hans/dev/rust/time-tracker/src/main.rs
FN:17,_RNCNvCs4aJWLfWVbhf_2tt4main0B3_
FN:6,_RNvCs4aJWLfWVbhf_2tt4main
FN:17,_RNCNvCs6AqfWiTXaRD_2tt4main0B3_
FN:6,_RNvCs6AqfWiTXaRD_2tt4main
FNDA:0,_RNCNvCs4aJWLfWVbhf_2tt4main0B3_
FNDA:0,_RNvCs4aJWLfWVbhf_2tt4main
FNDA:0,_RNCNvCs6AqfWiTXaRD_2tt4main0B3_
FNDA:118,_RNvCs6AqfWiTXaRD_2tt4main
FNF:2
FNH:1
DA:6,118
DA:7,118
DA:8,116
DA:9,2
DA:10,2
DA:11,2
DA:14,116
DA:15,116
DA:16,52
DA:17,52
DA:18,0
DA:19,52
DA:20,52
DA:22,64
DA:25,116
DA:26,1
DA:27,115
DA:29,116
DA:30,116
DA:31,116
DA:32,100
DA:33,100
DA:34,100
DA:35,100
DA:36,100
DA:37,100
DA:38,100
DA:39,100
DA:40,100
DA:41,100
DA:42,100
DA:43,100
DA:44,100
DA:45,116
BRF:0
BRH:0
LF:36
LH:33
end_of_record
SF:/Users/hans/dev/rust/time-tracker/src/parsing/filter.rs
FN:16,_RNCNvMNtNtCs32R6rcQHX2H_12time_tracker7parsing6filterNtB4_6Filter7matches0B8_
FN:19,_RNCNvMNtNtCs32R6rcQHX2H_12time_tracker7parsing6filterNtB4_6Filter7matchess_0B8_
FN:24,_RNvMNtNtCs32R6rcQHX2H_12time_tracker7parsing6filterNtB2_6Filter7combine
FN:14,_RNvMNtNtCs32R6rcQHX2H_12time_tracker7parsing6filterNtB2_6Filter7matches
FN:35,_RNvNtNtNtCs32R6rcQHX2H_12time_tracker7parsing6filter5testss_23test_week_of_date_range
FN:24,_RNvMNtNtCseOvZ2GYdjRc_12time_tracker7parsing6filterNtB2_6Filter7combine
FN:14,_RNvMNtNtCseOvZ2GYdjRc_12time_tracker7parsing6filterNtB2_6Filter7matches
FN:16,_RNCNvMNtNtCseOvZ2GYdjRc_12time_tracker7parsing6filterNtB4_6Filter7matches0B8_
FN:19,_RNCNvMNtNtCseOvZ2GYdjRc_12time_tracker7parsing6filterNtB4_6Filter7matchess_0B8_
FNDA:0,_RNCNvMNtNtCs32R6rcQHX2H_12time_tracker7parsing6filterNtB4_6Filter7matches0B8_
FNDA:0,_RNCNvMNtNtCs32R6rcQHX2H_12time_tracker7parsing6filterNtB4_6Filter7matchess_0B8_
FNDA:0,_RNvMNtNtCs32R6rcQHX2H_12time_tracker7parsing6filterNtB2_6Filter7combine
FNDA:0,_RNvMNtNtCs32R6rcQHX2H_12time_tracker7parsing6filterNtB2_6Filter7matches
FNDA:1,_RNvNtNtNtCs32R6rcQHX2H_12time_tracker7parsing6filter5testss_23test_week_of_date_range
FNDA:64,_RNvMNtNtCseOvZ2GYdjRc_12time_tracker7parsing6filterNtB2_6Filter7combine
FNDA:464,_RNvMNtNtCseOvZ2GYdjRc_12time_tracker7parsing6filterNtB2_6Filter7matches
FNDA:28,_RNCNvMNtNtCseOvZ2GYdjRc_12time_tracker7parsing6filterNtB4_6Filter7matches0B8_
FNDA:10,_RNCNvMNtNtCseOvZ2GYdjRc_12time_tracker7parsing6filterNtB4_6Filter7matchess_0B8_
FNF:5
FNH:5
DA:14,464
DA:15,464
DA:16,28
DA:17,135
DA:18,135
DA:19,135
DA:20,139
DA:21,165
DA:23,464
DA:24,64
DA:25,64
DA:26,64
DA:35,1
DA:36,1
DA:37,1
DA:38,1
DA:39,1
DA:40,1
DA:41,1
DA:42,1
DA:43,1
DA:44,1
DA:45,1
DA:47,1
DA:48,1
DA:49,1
DA:50,1
DA:51,1
BRF:0
BRH:0
LF:30
LH:30
end_of_record
SF:/Users/hans/dev/rust/time-tracker/src/parsing/header_parser.rs
FN:1,_RNvNtNtCs32R6rcQHX2H_12time_tracker7parsing13header_parser22maybe_date_from_header
FN:1,_RNvNtNtCseOvZ2GYdjRc_12time_tracker7parsing13header_parser22maybe_date_from_header
FNDA:7,_RNvNtNtCs32R6rcQHX2H_12time_tracker7parsing13header_parser22maybe_date_from_header
FNDA:198,_RNvNtNtCseOvZ2GYdjRc_12time_tracker7parsing13header_parser22maybe_date_from_header
FNF:1
FNH:1
DA:1,205
DA:2,205
DA:4,205
DA:5,205
DA:7,198
DA:9,7
DA:11,205
BRF:0
BRH:0
LF:7
LH:7
end_of_record
SF:/Users/hans/dev/rust/time-tracker/src/parsing/mod.rs
FN:79,_RNCNvNtCs32R6rcQHX2H_12time_tracker7parsing12tracked_time0B5_
FN:80,_RNCNvNtCs32R6rcQHX2H_12time_tracker7parsing12tracked_times_0B5_
FN:37,_RNCNvNtCs32R6rcQHX2H_12time_tracker7parsing23parse_entries_from_path0B5_
FN:48,_RNCNvNtCs32R6rcQHX2H_12time_tracker7parsing7entries0B5_
FN:51,_RNvNtCs32R6rcQHX2H_12time_tracker7parsing10start_date
FN:76,_RNvNtCs32R6rcQHX2H_12time_tracker7parsing12tracked_time
FN:22,_RNvNtCs32R6rcQHX2H_12time_tracker7parsing13process_input
FN:67,_RNvNtCs32R6rcQHX2H_12time_tracker7parsing15tracking_result
FN:31,_RNvNtCs32R6rcQHX2H_12time_tracker7parsing23parse_entries_from_path
FN:63,_RNvNtCs32R6rcQHX2H_12time_tracker7parsing4days
FN:90,_RNvNtCs32R6rcQHX2H_12time_tracker7parsing6errors
FN:45,_RNvNtCs32R6rcQHX2H_12time_tracker7parsing7entries
FN:57,_RNvNtCs32R6rcQHX2H_12time_tracker7parsing8end_date
FN:51,_RNvNtCseOvZ2GYdjRc_12time_tracker7parsing10start_date
FN:76,_RNvNtCseOvZ2GYdjRc_12time_tracker7parsing12tracked_time
FN:22,_RNvNtCseOvZ2GYdjRc_12time_tracker7parsing13process_input
FN:67,_RNvNtCseOvZ2GYdjRc_12time_tracker7parsing15tracking_result
FN:31,_RNvNtCseOvZ2GYdjRc_12time_tracker7parsing23parse_entries_from_path
FN:63,_RNvNtCseOvZ2GYdjRc_12time_tracker7parsing4days
FN:90,_RNvNtCseOvZ2GYdjRc_12time_tracker7parsing6errors
FN:45,_RNvNtCseOvZ2GYdjRc_12time_tracker7parsing7entries
FN:57,_RNvNtCseOvZ2GYdjRc_12time_tracker7parsing8end_date
FN:79,_RNCNvNtCseOvZ2GYdjRc_12time_tracker7parsing12tracked_time0B5_
FN:80,_RNCNvNtCseOvZ2GYdjRc_12time_tracker7parsing12tracked_times_0B5_
FN:37,_RNCNvNtCseOvZ2GYdjRc_12time_tracker7parsing23parse_entries_from_path0B5_
FN:48,_RNCNvNtCseOvZ2GYdjRc_12time_tracker7parsing7entries0B5_
FNDA:0,_RNCNvNtCs32R6rcQHX2H_12time_tracker7parsing12tracked_time0B5_
FNDA:0,_RNCNvNtCs32R6rcQHX2H_12time_tracker7parsing12tracked_times_0B5_
FNDA:0,_RNCNvNtCs32R6rcQHX2H_12time_tracker7parsing23parse_entries_from_path0B5_
FNDA:0,_RNCNvNtCs32R6rcQHX2H_12time_tracker7parsing7entries0B5_
FNDA:0,_RNvNtCs32R6rcQHX2H_12time_tracker7parsing10start_date
FNDA:0,_RNvNtCs32R6rcQHX2H_12time_tracker7parsing12tracked_time
FNDA:0,_RNvNtCs32R6rcQHX2H_12time_tracker7parsing13process_input
FNDA:0,_RNvNtCs32R6rcQHX2H_12time_tracker7parsing15tracking_result
FNDA:0,_RNvNtCs32R6rcQHX2H_12time_tracker7parsing23parse_entries_from_path
FNDA:0,_RNvNtCs32R6rcQHX2H_12time_tracker7parsing4days
FNDA:0,_RNvNtCs32R6rcQHX2H_12time_tracker7parsing6errors
FNDA:0,_RNvNtCs32R6rcQHX2H_12time_tracker7parsing7entries
FNDA:0,_RNvNtCs32R6rcQHX2H_12time_tracker7parsing8end_date
FNDA:92,_RNvNtCseOvZ2GYdjRc_12time_tracker7parsing10start_date
FNDA:100,_RNvNtCseOvZ2GYdjRc_12time_tracker7parsing12tracked_time
FNDA:100,_RNvNtCseOvZ2GYdjRc_12time_tracker7parsing13process_input
FNDA:100,_RNvNtCseOvZ2GYdjRc_12time_tracker7parsing15tracking_result
FNDA:100,_RNvNtCseOvZ2GYdjRc_12time_tracker7parsing23parse_entries_from_path
FNDA:92,_RNvNtCseOvZ2GYdjRc_12time_tracker7parsing4days
FNDA:100,_RNvNtCseOvZ2GYdjRc_12time_tracker7parsing6errors
FNDA:92,_RNvNtCseOvZ2GYdjRc_12time_tracker7parsing7entries
FNDA:92,_RNvNtCseOvZ2GYdjRc_12time_tracker7parsing8end_date
FNDA:92,_RNCNvNtCseOvZ2GYdjRc_12time_tracker7parsing12tracked_time0B5_
FNDA:92,_RNCNvNtCseOvZ2GYdjRc_12time_tracker7parsing12tracked_times_0B5_
FNDA:103,_RNCNvNtCseOvZ2GYdjRc_12time_tracker7parsing23parse_entries_from_path0B5_
FNDA:110,_RNCNvNtCseOvZ2GYdjRc_12time_tracker7parsing7entries0B5_
FNF:13
FNH:13
DA:22,100
DA:23,100
DA:24,100
DA:25,100
DA:26,100
DA:27,100
DA:28,100
DA:29,100
DA:31,100
DA:32,100
DA:33,100
DA:34,100
DA:35,100
DA:36,100
DA:37,103
DA:38,103
DA:39,103
DA:40,103
DA:41,103
DA:42,100
DA:43,100
DA:45,92
DA:46,92
DA:47,92
DA:48,110
DA:49,92
DA:51,92
DA:52,92
DA:53,92
DA:54,92
DA:55,92
DA:57,92
DA:58,92
DA:59,92
DA:60,92
DA:61,92
DA:63,92
DA:64,92
DA:65,92
DA:67,100
DA:68,100
DA:69,100
DA:70,100
DA:71,100
DA:72,100
DA:73,100
DA:74,100
DA:76,100
DA:77,100
DA:78,100
DA:79,100
DA:80,100
DA:81,92
DA:82,92
DA:83,92
DA:84,92
DA:85,92
DA:86,92
DA:87,100
DA:88,100
DA:90,100
DA:91,100
DA:92,100
BRF:0
BRH:0
LF:69
LH:69
end_of_record
SF:/Users/hans/dev/rust/time-tracker/src/parsing/model.rs
FN:14,_RNvMNtNtCs32R6rcQHX2H_12time_tracker7parsing5modelNtB2_10ParseState24in_time_tracking_section
FN:82,_RNvMs0_NtNtCs32R6rcQHX2H_12time_tracker7parsing5modelNtB5_11ParseResult11errors_only
FN:101,_RNvMs0_NtNtCs32R6rcQHX2H_12time_tracker7parsing5modelNtB5_11ParseResult15entries_by_date
FN:73,_RNvMs0_NtNtCs32R6rcQHX2H_12time_tracker7parsing5modelNtB5_11ParseResult3new
FN:96,_RNvMs0_NtNtCs32R6rcQHX2H_12time_tracker7parsing5modelNtB5_11ParseResult4days
FN:106,_RNvMs0_NtNtCs32R6rcQHX2H_12time_tracker7parsing5modelNtB5_11ParseResult5merge
FN:91,_RNvMs0_NtNtCs32R6rcQHX2H_12time_tracker7parsing5modelNtB5_11ParseResult6errors
FN:46,_RNCNCNvNtNtCs32R6rcQHX2H_12time_tracker7parsing5model19try_parse_to_header00B9_
FN:44,_RNCNvNtNtCs32R6rcQHX2H_12time_tracker7parsing5model19try_parse_to_header0B7_
FN:31,_RNvMs_NtNtCs32R6rcQHX2H_12time_tracker7parsing5modelNtB4_8LineType5parse
FN:52,_RNvNtNtCs32R6rcQHX2H_12time_tracker7parsing5model18try_parse_to_entry
FN:42,_RNvNtNtCs32R6rcQHX2H_12time_tracker7parsing5model19try_parse_to_header
FN:60,_RNvNtNtCs32R6rcQHX2H_12time_tracker7parsing5model5other
FN:14,_RNvMNtNtCseOvZ2GYdjRc_12time_tracker7parsing5modelNtB2_10ParseState24in_time_tracking_section
FN:82,_RNvMs0_NtNtCseOvZ2GYdjRc_12time_tracker7parsing5modelNtB5_11ParseResult11errors_only
FN:101,_RNvMs0_NtNtCseOvZ2GYdjRc_12time_tracker7parsing5modelNtB5_11ParseResult15entries_by_date
FN:73,_RNvMs0_NtNtCseOvZ2GYdjRc_12time_tracker7parsing5modelNtB5_11ParseResult3new
FN:96,_RNvMs0_NtNtCseOvZ2GYdjRc_12time_tracker7parsing5modelNtB5_11ParseResult4days
FN:106,_RNvMs0_NtNtCseOvZ2GYdjRc_12time_tracker7parsing5modelNtB5_11ParseResult5merge
FN:91,_RNvMs0_NtNtCseOvZ2GYdjRc_12time_tracker7parsing5modelNtB5_11ParseResult6errors
FN:31,_RNvMs_NtNtCseOvZ2GYdjRc_12time_tracker7parsing5modelNtB4_8LineType5parse
FN:52,_RNvNtNtCseOvZ2GYdjRc_12time_tracker7parsing5model18try_parse_to_entry
FN:42,_RNvNtNtCseOvZ2GYdjRc_12time_tracker7parsing5model19try_parse_to_header
FN:60,_RNvNtNtCseOvZ2GYdjRc_12time_tracker7parsing5model5other
FN:46,_RNCNCNvNtNtCseOvZ2GYdjRc_12time_tracker7parsing5model19try_parse_to_header00B9_
FN:44,_RNCNvNtNtCseOvZ2GYdjRc_12time_tracker7parsing5model19try_parse_to_header0B7_
FNDA:0,_RNvMNtNtCs32R6rcQHX2H_12time_tracker7parsing5modelNtB2_10ParseState24in_time_tracking_section
FNDA:0,_RNvMs0_NtNtCs32R6rcQHX2H_12time_tracker7parsing5modelNtB5_11ParseResult11errors_only
FNDA:0,_RNvMs0_NtNtCs32R6rcQHX2H_12time_tracker7parsing5modelNtB5_11ParseResult15entries_by_date
FNDA:0,_RNvMs0_NtNtCs32R6rcQHX2H_12time_tracker7parsing5modelNtB5_11ParseResult3new
FNDA:0,_RNvMs0_NtNtCs32R6rcQHX2H_12time_tracker7parsing5modelNtB5_11ParseResult4days
FNDA:0,_RNvMs0_NtNtCs32R6rcQHX2H_12time_tracker7parsing5modelNtB5_11ParseResult5merge
FNDA:0,_RNvMs0_NtNtCs32R6rcQHX2H_12time_tracker7parsing5modelNtB5_11ParseResult6errors
FNDA:0,_RNCNCNvNtNtCs32R6rcQHX2H_12time_tracker7parsing5model19try_parse_to_header00B9_
FNDA:4,_RNCNvNtNtCs32R6rcQHX2H_12time_tracker7parsing5model19try_parse_to_header0B7_
FNDA:10,_RNvMs_NtNtCs32R6rcQHX2H_12time_tracker7parsing5modelNtB4_8LineType5parse
FNDA:3,_RNvNtNtCs32R6rcQHX2H_12time_tracker7parsing5model18try_parse_to_entry
FNDA:7,_RNvNtNtCs32R6rcQHX2H_12time_tracker7parsing5model19try_parse_to_header
FNDA:2,_RNvNtNtCs32R6rcQHX2H_12time_tracker7parsing5model5other
FNDA:676,_RNvMNtNtCseOvZ2GYdjRc_12time_tracker7parsing5modelNtB2_10ParseState24in_time_tracking_section
FNDA:115,_RNvMs0_NtNtCseOvZ2GYdjRc_12time_tracker7parsing5modelNtB5_11ParseResult11errors_only
FNDA:100,_RNvMs0_NtNtCseOvZ2GYdjRc_12time_tracker7parsing5modelNtB5_11ParseResult15entries_by_date
FNDA:191,_RNvMs0_NtNtCseOvZ2GYdjRc_12time_tracker7parsing5modelNtB5_11ParseResult3new
FNDA:92,_RNvMs0_NtNtCseOvZ2GYdjRc_12time_tracker7parsing5modelNtB5_11ParseResult4days
FNDA:103,_RNvMs0_NtNtCseOvZ2GYdjRc_12time_tracker7parsing5modelNtB5_11ParseResult5merge
FNDA:100,_RNvMs0_NtNtCseOvZ2GYdjRc_12time_tracker7parsing5modelNtB5_11ParseResult6errors
FNDA:457,_RNvMs_NtNtCseOvZ2GYdjRc_12time_tracker7parsing5modelNtB4_8LineType5parse
FNDA:246,_RNvNtNtCseOvZ2GYdjRc_12time_tracker7parsing5model18try_parse_to_entry
FNDA:198,_RNvNtNtCseOvZ2GYdjRc_12time_tracker7parsing5model19try_parse_to_header
FNDA:35,_RNvNtNtCseOvZ2GYdjRc_12time_tracker7parsing5model5other
FNDA:2,_RNCNCNvNtNtCseOvZ2GYdjRc_12time_tracker7parsing5model19try_parse_to_header00B9_
FNDA:194,_RNCNvNtNtCseOvZ2GYdjRc_12time_tracker7parsing5model19try_parse_to_header0B7_
FNF:13
FNH:13
DA:14,676
DA:15,676
DA:16,676
DA:31,467
DA:32,467
DA:33,205
DA:34,262
DA:35,249
DA:37,13
DA:39,467
DA:42,205
DA:43,205
DA:44,205
DA:45,198
DA:46,198
DA:47,205
DA:48,205
DA:49,203
DA:50,205
DA:52,249
DA:53,249
DA:54,220
DA:55,24
DA:56,5
DA:58,249
DA:60,37
DA:61,37
DA:62,37
DA:73,191
DA:74,191
DA:75,191
DA:76,191
DA:77,191
DA:78,191
DA:79,191
DA:82,115
DA:83,115
DA:84,115
DA:85,115
DA:86,115
DA:87,115
DA:88,115
DA:91,100
DA:92,100
DA:93,100
DA:96,92
DA:97,92
DA:98,92
DA:101,100
DA:102,100
DA:103,100
DA:106,103
DA:107,103
DA:108,103
DA:109,103
DA:112,103
DA:113,3
DA:114,3
DA:116,6
DA:117,3
DA:118,3
DA:119,3
DA:120,3
DA:121,3
DA:122,3
DA:124,93
DA:125,7
DA:128,103
DA:129,96
DA:130,7
DA:132,103
BRF:0
BRH:0
LF:74
LH:74
end_of_record
SF:/Users/hans/dev/rust/time-tracker/src/parsing/parser.rs
FN:13,_RNCNvNtNtCs32R6rcQHX2H_12time_tracker7parsing6parser13parse_content0B7_
FN:17,_RNCNvNtNtCs32R6rcQHX2H_12time_tracker7parsing6parser13parse_contents_0B7_
FN:28,_RNvNtNtCs32R6rcQHX2H_12time_tracker7parsing6parser12process_line
FN:9,_RNvNtNtCs32R6rcQHX2H_12time_tracker7parsing6parser13parse_content
FN:104,_RNvNtNtNtNtCs32R6rcQHX2H_12time_tracker7parsing6parser5tests17section_detection14is_date_header
FN:13,_RNCNvNtNtCseOvZ2GYdjRc_12time_tracker7parsing6parser13parse_content0B7_
FN:17,_RNCNvNtNtCseOvZ2GYdjRc_12time_tracker7parsing6parser13parse_contents_0B7_
FN:28,_RNvNtNtCseOvZ2GYdjRc_12time_tracker7parsing6parser12process_line
FN:9,_RNvNtNtCseOvZ2GYdjRc_12time_tracker7parsing6parser13parse_content
FNDA:0,_RNCNvNtNtCs32R6rcQHX2H_12time_tracker7parsing6parser13parse_content0B7_
FNDA:0,_RNCNvNtNtCs32R6rcQHX2H_12time_tracker7parsing6parser13parse_contents_0B7_
FNDA:0,_RNvNtNtCs32R6rcQHX2H_12time_tracker7parsing6parser12process_line
FNDA:0,_RNvNtNtCs32R6rcQHX2H_12time_tracker7parsing6parser13parse_content
FNDA:10,_RNvNtNtNtNtCs32R6rcQHX2H_12time_tracker7parsing6parser5tests17section_detection14is_date_header
FNDA:457,_RNCNvNtNtCseOvZ2GYdjRc_12time_tracker7parsing6parser13parse_content0B7_
FNDA:457,_RNCNvNtNtCseOvZ2GYdjRc_12time_tracker7parsing6parser13parse_contents_0B7_
FNDA:457,_RNvNtNtCseOvZ2GYdjRc_12time_tracker7parsing6parser12process_line
FNDA:103,_RNvNtNtCseOvZ2GYdjRc_12time_tracker7parsing6parser13parse_content
FNF:5
FNH:5
DA:9,103
DA:10,103
DA:11,103
DA:12,103
DA:13,457
DA:14,457
DA:15,457
DA:16,457
DA:17,457
DA:18,457
DA:19,457
DA:20,103
DA:21,103
DA:22,8
DA:24,95
DA:26,103
DA:28,457
DA:29,457
DA:30,457
DA:31,457
DA:32,457
DA:33,457
DA:34,457
DA:35,196
DA:36,196
DA:37,196
DA:38,196
DA:39,219
DA:40,219
DA:41,219
DA:42,219
DA:43,0
DA:44,219
DA:45,130
DA:46,130
DA:47,89
DA:49,0
DA:50,219
DA:52,7
DA:53,7
DA:54,7
DA:55,7
DA:56,7
DA:57,7
DA:58,7
DA:59,7
DA:60,7
DA:61,7
DA:62,7
DA:63,7
DA:64,7
DA:65,7
DA:66,35
DA:68,457
DA:104,10
DA:105,10
DA:106,10
BRF:0
BRH:0
LF:61
LH:59
end_of_record
SF:/Users/hans/dev/rust/time-tracker/src/parsing/processor.rs
FN:128,_RNvMNtNtCs32R6rcQHX2H_12time_tracker7parsing9processorNtB2_9Processor9from_path
FN:56,_RINvXs0_NtNtNtCs32R6rcQHX2H_12time_tracker7parsing9processor10processorsNtB6_19SingleFileProcessorNtB8_13FileProcessor7processNCNvMNtB8_5testsNtB25_14ProcessingTest7process0EBc_
FN:56,_RINvXs0_NtNtNtCs32R6rcQHX2H_12time_tracker7parsing9processor10processorsNtB6_19SingleFileProcessorNtB8_13FileProcessor7processQNCNvMNtB8_5testsNtB26_14ProcessingTest7process0EBc_
FN:81,_RINvXs2_NtNtNtCs32R6rcQHX2H_12time_tracker7parsing9processor10processorsNtB6_18DirectoryProcessorNtB8_13FileProcessor7processNCNvMNtB8_5testsNtB24_14ProcessingTest7process0EBc_
FN:89,_RNCINvXs2_NtNtNtCs32R6rcQHX2H_12time_tracker7parsing9processor10processorsNtB8_18DirectoryProcessorNtBa_13FileProcessor7processNCNvMNtBa_5testsNtB26_14ProcessingTest7process0E0Be_
FN:47,_RNCNvMs_NtNtNtCs32R6rcQHX2H_12time_tracker7parsing9processor10processorsNtB6_19SingleFileProcessor17extract_file_name0Bc_
FN:48,_RNCNvMs_NtNtNtCs32R6rcQHX2H_12time_tracker7parsing9processor10processorsNtB6_19SingleFileProcessor17extract_file_names_0Bc_
FN:40,_RNCNvMs_NtNtNtCs32R6rcQHX2H_12time_tracker7parsing9processor10processorsNtB6_19SingleFileProcessor17read_file_content0Bc_
FN:113,_RNCNvNtNtNtCs32R6rcQHX2H_12time_tracker7parsing9processor10processors17is_supported_file0B9_
FN:114,_RNCNvNtNtNtCs32R6rcQHX2H_12time_tracker7parsing9processor10processors17is_supported_files_0B9_
FN:224,_RNCNvMNtNtNtCs32R6rcQHX2H_12time_tracker7parsing9processor5testsNtB4_14ProcessingTest7process0Ba_
FN:312,_RNCNvMs1_NtNtNtCs32R6rcQHX2H_12time_tracker7parsing9processor5testsNtB7_17ProcessingResults21expect_processed_file0Bd_
FN:322,_RNCNvMs1_NtNtNtCs32R6rcQHX2H_12time_tracker7parsing9processor5testsNtB7_17ProcessingResults32expect_only_processed_extensions0Bd_
FN:98,_RINvXs3_NtNtNtCs32R6rcQHX2H_12time_tracker7parsing9processor10processorsNtB8_9ProcessorNtB8_13FileProcessor7processNCNvMNtB8_5testsNtB1U_14ProcessingTest7process0EBc_
FN:220,_RNvMNtNtNtCs32R6rcQHX2H_12time_tracker7parsing9processor5testsNtB2_14ProcessingTest7process
FN:291,_RNvMs0_NtNtNtCs32R6rcQHX2H_12time_tracker7parsing9processor5testsNtB5_14ProcessingTest14with_directory
FN:276,_RNvMs0_NtNtNtCs32R6rcQHX2H_12time_tracker7parsing9processor5testsNtB5_14ProcessingTest3new
FN:282,_RNvMs0_NtNtNtCs32R6rcQHX2H_12time_tracker7parsing9processor5testsNtB5_14ProcessingTest9with_file
FN:308,_RNvMs1_NtNtNtCs32R6rcQHX2H_12time_tracker7parsing9processor5testsNtB5_17ProcessingResults21expect_processed_file
FN:298,_RNvMs1_NtNtNtCs32R6rcQHX2H_12time_tracker7parsing9processor5testsNtB5_17ProcessingResults24expect_processed_exactly
FN:318,_RNvMs1_NtNtNtCs32R6rcQHX2H_12time_tracker7parsing9processor5testsNtB5_17ProcessingResults32expect_only_processed_extensions
FN:173,_RNvNtNtNtCs32R6rcQHX2H_12time_tracker7parsing9processor5testss_23handles_empty_directory
FN:201,_RNvNtNtNtCs32R6rcQHX2H_12time_tracker7parsing9processor5testss_25handles_non_existent_file
FN:184,_RNvNtNtNtCs32R6rcQHX2H_12time_tracker7parsing9processor5testss_28processes_nested_directories
FN:143,_RNvNtNtNtCs32R6rcQHX2H_12time_tracker7parsing9processor5testss_30processes_single_markdown_file
FN:157,_RNvNtNtNtCs32R6rcQHX2H_12time_tracker7parsing9processor5testss_43processes_only_supported_files_in_directory
FN:249,_RNvXs_NtNtNtCs32R6rcQHX2H_12time_tracker7parsing9processor5testsNtB4_17ProcessingOutcomeNtB4_20ProcessingAssertions12expect_error
FN:242,_RNvXs_NtNtNtCs32R6rcQHX2H_12time_tracker7parsing9processor5testsNtB4_17ProcessingOutcomeNtB4_20ProcessingAssertions14expect_success
FN:262,_RNvXs_NtNtNtCs32R6rcQHX2H_12time_tracker7parsing9processor5testsNtB4_17ProcessingOutcomeNtB4_20ProcessingAssertions23expect_error_containing
FN:22,_RNvMNtNtNtCs32R6rcQHX2H_12time_tracker7parsing9processor10processorsNtB2_15ProcessingInput3new
FN:26,_RNvMNtNtNtCs32R6rcQHX2H_12time_tracker7parsing9processor10processorsNtB2_15ProcessingInput7content
FN:30,_RNvMNtNtNtCs32R6rcQHX2H_12time_tracker7parsing9processor10processorsNtB2_15ProcessingInput9file_name
FN:73,_RNvMs1_NtNtNtCs32R6rcQHX2H_12time_tracker7parsing9processor10processorsNtB5_18DirectoryProcessor3new
FN:45,_RNvMs_NtNtNtCs32R6rcQHX2H_12time_tracker7parsing9processor10processorsNtB4_19SingleFileProcessor17extract_file_name
FN:39,_RNvMs_NtNtNtCs32R6rcQHX2H_12time_tracker7parsing9processor10processorsNtB4_19SingleFileProcessor17read_file_content
FN:111,_RNvNtNtNtCs32R6rcQHX2H_12time_tracker7parsing9processor10processors17is_supported_file
FN:98,_RINvXs3_NtNtNtCseOvZ2GYdjRc_12time_tracker7parsing9processor10processorsNtB8_9ProcessorNtB8_13FileProcessor7processNCNvBa_23parse_entries_from_path0EBc_
FN:56,_RINvXs0_NtNtNtCseOvZ2GYdjRc_12time_tracker7parsing9processor10processorsNtB6_19SingleFileProcessorNtB8_13FileProcessor7processNCNvBa_23parse_entries_from_path0EBc_
FN:56,_RINvXs0_NtNtNtCseOvZ2GYdjRc_12time_tracker7parsing9processor10processorsNtB6_19SingleFileProcessorNtB8_13FileProcessor7processQNCNvBa_23parse_entries_from_path0EBc_
FN:81,_RINvXs2_NtNtNtCseOvZ2GYdjRc_12time_tracker7parsing9processor10processorsNtB6_18DirectoryProcessorNtB8_13FileProcessor7processNCNvBa_23parse_entries_from_path0EBc_
FN:89,_RNCINvXs2_NtNtNtCseOvZ2GYdjRc_12time_tracker7parsing9processor10processorsNtB8_18DirectoryProcessorNtBa_13FileProcessor7processNCNvBc_23parse_entries_from_path0E0Be_
FN:47,_RNCNvMs_NtNtNtCseOvZ2GYdjRc_12time_tracker7parsing9processor10processorsNtB6_19SingleFileProcessor17extract_file_name0Bc_
FN:48,_RNCNvMs_NtNtNtCseOvZ2GYdjRc_12time_tracker7parsing9processor10processorsNtB6_19SingleFileProcessor17extract_file_names_0Bc_
FN:40,_RNCNvMs_NtNtNtCseOvZ2GYdjRc_12time_tracker7parsing9processor10processorsNtB6_19SingleFileProcessor17read_file_content0Bc_
FN:113,_RNCNvNtNtNtCseOvZ2GYdjRc_12time_tracker7parsing9processor10processors17is_supported_file0B9_
FN:114,_RNCNvNtNtNtCseOvZ2GYdjRc_12time_tracker7parsing9processor10processors17is_supported_files_0B9_
FN:128,_RNvMNtNtCseOvZ2GYdjRc_12time_tracker7parsing9processorNtB2_9Processor9from_path
FN:22,_RNvMNtNtNtCseOvZ2GYdjRc_12time_tracker7parsing9processor10processorsNtB2_15ProcessingInput3new
FN:26,_RNvMNtNtNtCseOvZ2GYdjRc_12time_tracker7parsing9processor10processorsNtB2_15ProcessingInput7content
FN:30,_RNvMNtNtNtCseOvZ2GYdjRc_12time_tracker7parsing9processor10processorsNtB2_15ProcessingInput9file_name
FN:73,_RNvMs1_NtNtNtCseOvZ2GYdjRc_12time_tracker7parsing9processor10processorsNtB5_18DirectoryProcessor3new
FN:45,_RNvMs_NtNtNtCseOvZ2GYdjRc_12time_tracker7parsing9processor10processorsNtB4_19SingleFileProcessor17extract_file_name
FN:39,_RNvMs_NtNtNtCseOvZ2GYdjRc_12time_tracker7parsing9processor10processorsNtB4_19SingleFileProcessor17read_file_content
FN:111,_RNvNtNtNtCseOvZ2GYdjRc_12time_tracker7parsing9processor10processors17is_supported_file
FNDA:5,_RNvMNtNtCs32R6rcQHX2H_12time_tracker7parsing9processorNtB2_9Processor9from_path
FNDA:2,_RINvXs0_NtNtNtCs32R6rcQHX2H_12time_tracker7parsing9processor10processorsNtB6_19SingleFileProcessorNtB8_13FileProcessor7processNCNvMNtB8_5testsNtB25_14ProcessingTest7process0EBc_
FNDA:4,_RINvXs0_NtNtNtCs32R6rcQHX2H_12time_tracker7parsing9processor10processorsNtB6_19SingleFileProcessorNtB8_13FileProcessor7processQNCNvMNtB8_5testsNtB26_14ProcessingTest7process0EBc_
FNDA:3,_RINvXs2_NtNtNtCs32R6rcQHX2H_12time_tracker7parsing9processor10processorsNtB6_18DirectoryProcessorNtB8_13FileProcessor7processNCNvMNtB8_5testsNtB24_14ProcessingTest7process0EBc_
FNDA:9,_RNCINvXs2_NtNtNtCs32R6rcQHX2H_12time_tracker7parsing9processor10processorsNtB8_18DirectoryProcessorNtBa_13FileProcessor7processNCNvMNtBa_5testsNtB26_14ProcessingTest7process0E0Be_
FNDA:6,_RNCNvMs_NtNtNtCs32R6rcQHX2H_12time_tracker7parsing9processor10processorsNtB6_19SingleFileProcessor17extract_file_name0Bc_
FNDA:0,_RNCNvMs_NtNtNtCs32R6rcQHX2H_12time_tracker7parsing9processor10processorsNtB6_19SingleFileProcessor17extract_file_names_0Bc_
FNDA:1,_RNCNvMs_NtNtNtCs32R6rcQHX2H_12time_tracker7parsing9processor10processorsNtB6_19SingleFileProcessor17read_file_content0Bc_
FNDA:5,_RNCNvNtNtNtCs32R6rcQHX2H_12time_tracker7parsing9processor10processors17is_supported_file0B9_
FNDA:5,_RNCNvNtNtNtCs32R6rcQHX2H_12time_tracker7parsing9processor10processors17is_supported_files_0B9_
FNDA:5,_RNCNvMNtNtNtCs32R6rcQHX2H_12time_tracker7parsing9processor5testsNtB4_14ProcessingTest7process0Ba_
FNDA:4,_RNCNvMs1_NtNtNtCs32R6rcQHX2H_12time_tracker7parsing9processor5testsNtB7_17ProcessingResults21expect_processed_file0Bd_
FNDA:2,_RNCNvMs1_NtNtNtCs32R6rcQHX2H_12time_tracker7parsing9processor5testsNtB7_17ProcessingResults32expect_only_processed_extensions0Bd_
FNDA:5,_RINvXs3_NtNtNtCs32R6rcQHX2H_12time_tracker7parsing9processor10processorsNtB8_9ProcessorNtB8_13FileProcessor7processNCNvMNtB8_5testsNtB1U_14ProcessingTest7process0EBc_
FNDA:5,_RNvMNtNtNtCs32R6rcQHX2H_12time_tracker7parsing9processor5testsNtB2_14ProcessingTest7process
FNDA:1,_RNvMs0_NtNtNtCs32R6rcQHX2H_12time_tracker7parsing9processor5testsNtB5_14ProcessingTest14with_directory
FNDA:5,_RNvMs0_NtNtNtCs32R6rcQHX2H_12time_tracker7parsing9processor5testsNtB5_14ProcessingTest3new
FNDA:6,_RNvMs0_NtNtNtCs32R6rcQHX2H_12time_tracker7parsing9processor5testsNtB5_14ProcessingTest9with_file
FNDA:3,_RNvMs1_NtNtNtCs32R6rcQHX2H_12time_tracker7parsing9processor5testsNtB5_17ProcessingResults21expect_processed_file
FNDA:4,_RNvMs1_NtNtNtCs32R6rcQHX2H_12time_tracker7parsing9processor5testsNtB5_17ProcessingResults24expect_processed_exactly
FNDA:1,_RNvMs1_NtNtNtCs32R6rcQHX2H_12time_tracker7parsing9processor5testsNtB5_17ProcessingResults32expect_only_processed_extensions
FNDA:1,_RNvNtNtNtCs32R6rcQHX2H_12time_tracker7parsing9processor5testss_23handles_empty_directory
FNDA:1,_RNvNtNtNtCs32R6rcQHX2H_12time_tracker7parsing9processor5testss_25handles_non_existent_file
FNDA:1,_RNvNtNtNtCs32R6rcQHX2H_12time_tracker7parsing9processor5testss_28processes_nested_directories
FNDA:1,_RNvNtNtNtCs32R6rcQHX2H_12time_tracker7parsing9processor5testss_30processes_single_markdown_file
FNDA:1,_RNvNtNtNtCs32R6rcQHX2H_12time_tracker7parsing9processor5testss_43processes_only_supported_files_in_directory
FNDA:1,_RNvXs_NtNtNtCs32R6rcQHX2H_12time_tracker7parsing9processor5testsNtB4_17ProcessingOutcomeNtB4_20ProcessingAssertions12expect_error
FNDA:4,_RNvXs_NtNtNtCs32R6rcQHX2H_12time_tracker7parsing9processor5testsNtB4_17ProcessingOutcomeNtB4_20ProcessingAssertions14expect_success
FNDA:1,_RNvXs_NtNtNtCs32R6rcQHX2H_12time_tracker7parsing9processor5testsNtB4_17ProcessingOutcomeNtB4_20ProcessingAssertions23expect_error_containing
FNDA:5,_RNvMNtNtNtCs32R6rcQHX2H_12time_tracker7parsing9processor10processorsNtB2_15ProcessingInput3new
FNDA:5,_RNvMNtNtNtCs32R6rcQHX2H_12time_tracker7parsing9processor10processorsNtB2_15ProcessingInput7content
FNDA:5,_RNvMNtNtNtCs32R6rcQHX2H_12time_tracker7parsing9processor10processorsNtB2_15ProcessingInput9file_name
FNDA:3,_RNvMs1_NtNtNtCs32R6rcQHX2H_12time_tracker7parsing9processor10processorsNtB5_18DirectoryProcessor3new
FNDA:6,_RNvMs_NtNtNtCs32R6rcQHX2H_12time_tracker7parsing9processor10processorsNtB4_19SingleFileProcessor17extract_file_name
FNDA:6,_RNvMs_NtNtNtCs32R6rcQHX2H_12time_tracker7parsing9processor10processorsNtB4_19SingleFileProcessor17read_file_content
FNDA:9,_RNvNtNtNtCs32R6rcQHX2H_12time_tracker7parsing9processor10processors17is_supported_file
FNDA:100,_RINvXs3_NtNtNtCseOvZ2GYdjRc_12time_tracker7parsing9processor10processorsNtB8_9ProcessorNtB8_13FileProcessor7processNCNvBa_23parse_entries_from_path0EBc_
FNDA:93,_RINvXs0_NtNtNtCseOvZ2GYdjRc_12time_tracker7parsing9processor10processorsNtB6_19SingleFileProcessorNtB8_13FileProcessor7processNCNvBa_23parse_entries_from_path0EBc_
FNDA:10,_RINvXs0_NtNtNtCseOvZ2GYdjRc_12time_tracker7parsing9processor10processorsNtB6_19SingleFileProcessorNtB8_13FileProcessor7processQNCNvBa_23parse_entries_from_path0EBc_
FNDA:7,_RINvXs2_NtNtNtCseOvZ2GYdjRc_12time_tracker7parsing9processor10processorsNtB6_18DirectoryProcessorNtB8_13FileProcessor7processNCNvBa_23parse_entries_from_path0EBc_
FNDA:20,_RNCINvXs2_NtNtNtCseOvZ2GYdjRc_12time_tracker7parsing9processor10processorsNtB8_18DirectoryProcessorNtBa_13FileProcessor7processNCNvBc_23parse_entries_from_path0E0Be_
FNDA:103,_RNCNvMs_NtNtNtCseOvZ2GYdjRc_12time_tracker7parsing9processor10processorsNtB6_19SingleFileProcessor17extract_file_name0Bc_
FNDA:0,_RNCNvMs_NtNtNtCseOvZ2GYdjRc_12time_tracker7parsing9processor10processorsNtB6_19SingleFileProcessor17extract_file_names_0Bc_
FNDA:0,_RNCNvMs_NtNtNtCseOvZ2GYdjRc_12time_tracker7parsing9processor10processorsNtB6_19SingleFileProcessor17read_file_content0Bc_
FNDA:11,_RNCNvNtNtNtCseOvZ2GYdjRc_12time_tracker7parsing9processor10processors17is_supported_file0B9_
FNDA:11,_RNCNvNtNtNtCseOvZ2GYdjRc_12time_tracker7parsing9processor10processors17is_supported_files_0B9_
FNDA:100,_RNvMNtNtCseOvZ2GYdjRc_12time_tracker7parsing9processorNtB2_9Processor9from_path
FNDA:103,_RNvMNtNtNtCseOvZ2GYdjRc_12time_tracker7parsing9processor10processorsNtB2_15ProcessingInput3new
FNDA:103,_RNvMNtNtNtCseOvZ2GYdjRc_12time_tracker7parsing9processor10processorsNtB2_15ProcessingInput7content
FNDA:103,_RNvMNtNtNtCseOvZ2GYdjRc_12time_tracker7parsing9processor10processorsNtB2_15ProcessingInput9file_name
FNDA:7,_RNvMs1_NtNtNtCseOvZ2GYdjRc_12time_tracker7parsing9processor10processorsNtB5_18DirectoryProcessor3new
FNDA:103,_RNvMs_NtNtNtCseOvZ2GYdjRc_12time_tracker7parsing9processor10processorsNtB4_19SingleFileProcessor17extract_file_name
FNDA:103,_RNvMs_NtNtNtCseOvZ2GYdjRc_12time_tracker7parsing9processor10processorsNtB4_19SingleFileProcessor17read_file_content
FNDA:20,_RNvNtNtNtCseOvZ2GYdjRc_12time_tracker7parsing9processor10processors17is_supported_file
FNF:35
FNH:34
DA:22,108
DA:23,108
DA:24,108
DA:26,108
DA:27,108
DA:28,108
DA:30,108
DA:31,108
DA:32,108
DA:39,109
DA:40,109
DA:41,1
DA:42,109
DA:43,109
DA:45,109
DA:46,109
DA:47,109
DA:48,109
DA:49,0
DA:50,109
DA:51,109
DA:52,109
DA:56,109
DA:57,109
DA:58,109
DA:59,109
DA:60,109
DA:61,109
DA:63,108
DA:64,109
DA:73,10
DA:74,10
DA:75,10
DA:76,10
DA:77,10
DA:81,10
DA:82,10
DA:83,10
DA:84,10
DA:85,14
DA:86,10
DA:87,10
DA:88,10
DA:89,29
DA:91,14
DA:93,10
DA:94,10
DA:98,105
DA:99,105
DA:100,105
DA:101,105
DA:102,105
DA:103,95
DA:104,10
DA:106,105
DA:111,29
DA:112,29
DA:113,29
DA:114,29
DA:115,29
DA:128,105
DA:129,105
DA:130,10
DA:132,95
DA:134,105
DA:143,1
DA:144,1
DA:146,1
DA:148,1
DA:149,1
DA:150,1
DA:151,1
DA:152,1
DA:153,1
DA:154,1
DA:157,1
DA:158,1
DA:160,1
DA:161,1
DA:162,1
DA:164,1
DA:165,1
DA:166,1
DA:167,1
DA:168,1
DA:169,1
DA:170,1
DA:173,1
DA:174,1
DA:176,1
DA:177,1
DA:178,1
DA:179,1
DA:180,1
DA:181,1
DA:184,1
DA:185,1
DA:187,1
DA:188,1
DA:189,1
DA:191,1
DA:192,1
DA:193,1
DA:194,1
DA:195,1
DA:196,1
DA:197,1
DA:198,1
DA:201,1
DA:202,1
DA:203,1
DA:204,1
DA:205,1
DA:206,1
DA:207,1
DA:208,1
DA:220,5
DA:221,5
DA:222,5
DA:223,5
DA:224,5
DA:225,5
DA:226,5
DA:227,5
DA:228,4
DA:229,1
DA:231,5
DA:242,4
DA:243,4
DA:244,4
DA:245,0
DA:247,4
DA:249,1
DA:250,1
DA:251,0
DA:252,0
DA:253,0
DA:254,0
DA:255,0
DA:256,0
DA:258,1
DA:259,1
DA:260,1
DA:262,1
DA:263,1
DA:264,1
DA:265,1
DA:266,0
DA:268,1
DA:276,5
DA:277,5
DA:278,5
DA:280,5
DA:282,6
DA:283,6
DA:284,6
DA:285,6
DA:286,6
DA:287,6
DA:288,6
DA:289,6
DA:291,1
DA:292,1
DA:293,1
DA:294,1
DA:298,4
DA:299,4
DA:300,4
DA:302,0
DA:303,0
DA:305,4
DA:306,4
DA:308,3
DA:309,3
DA:310,3
DA:311,3
DA:312,4
DA:313,0
DA:315,3
DA:316,3
DA:318,1
DA:319,3
DA:320,2
DA:321,2
DA:322,2
DA:323,2
DA:324,2
DA:325,2
DA:326,0
DA:329,1
DA:330,1
BRF:0
BRH:0
LF:203
LH:188
end_of_record
SF:/Users/hans/dev/rust/time-tracker/src/reporting/format/markdown.rs
FN:21,_RNvMs_NtNtNtCs32R6rcQHX2H_12time_tracker9reporting6format8markdownNtB4_17MarkdownFormatter15format_overview
FN:8,_RNvXNtNtNtCs32R6rcQHX2H_12time_tracker9reporting6format8markdownNtB2_17MarkdownFormatterNtB4_9Formatter6format
FN:21,_RNvMs_NtNtNtCseOvZ2GYdjRc_12time_tracker9reporting6format8markdownNtB4_17MarkdownFormatter15format_overview
FN:8,_RNvXNtNtNtCseOvZ2GYdjRc_12time_tracker9reporting6format8markdownNtB2_17MarkdownFormatterNtB4_9Formatter6format
FNDA:0,_RNvMs_NtNtNtCs32R6rcQHX2H_12time_tracker9reporting6format8markdownNtB4_17MarkdownFormatter15format_overview
FNDA:0,_RNvXNtNtNtCs32R6rcQHX2H_12time_tracker9reporting6format8markdownNtB2_17MarkdownFormatterNtB4_9Formatter6format
FNDA:1,_RNvMs_NtNtNtCseOvZ2GYdjRc_12time_tracker9reporting6format8markdownNtB4_17MarkdownFormatter15format_overview
FNDA:1,_RNvXNtNtNtCseOvZ2GYdjRc_12time_tracker9reporting6format8markdownNtB2_17MarkdownFormatterNtB4_9Formatter6format
FNF:2
FNH:2
DA:8,1
DA:9,1
DA:10,1
DA:11,1
DA:12,1
DA:13,1
DA:14,1
DA:15,0
DA:17,1
DA:21,1
DA:22,1
DA:23,1
DA:24,1
DA:25,1
DA:26,1
DA:27,1
DA:28,1
DA:29,1
DA:30,1
DA:31,1
DA:32,1
DA:33,1
DA:34,1
DA:35,1
DA:36,1
DA:37,1
DA:38,1
DA:39,1
DA:40,4
DA:41,3
DA:42,3
DA:43,3
DA:44,3
DA:45,3
DA:46,3
DA:47,3
DA:49,1
DA:50,1
BRF:0
BRH:0
LF:38
LH:37
end_of_record
SF:/Users/hans/dev/rust/time-tracker/src/reporting/format/mod.rs
FN:29,_RNvMNtNtCs32R6rcQHX2H_12time_tracker9reporting6formatDNtB2_9FormatterEL_8from_str
FN:41,_RNvMs_NtNtCs32R6rcQHX2H_12time_tracker9reporting6formatNtB4_10FormatType8from_str
FN:50,_RNvNtNtCs32R6rcQHX2H_12time_tracker9reporting6format15format_duration
FN:11,_RNvNtNtCs32R6rcQHX2H_12time_tracker9reporting6format16create_formatter
FN:29,_RNvMNtNtCseOvZ2GYdjRc_12time_tracker9reporting6formatDNtB2_9FormatterEL_8from_str
FN:41,_RNvMs_NtNtCseOvZ2GYdjRc_12time_tracker9reporting6formatNtB4_10FormatType8from_str
FN:50,_RNvNtNtCseOvZ2GYdjRc_12time_tracker9reporting6format15format_duration
FN:11,_RNvNtNtCseOvZ2GYdjRc_12time_tracker9reporting6format16create_formatter
FNDA:0,_RNvMNtNtCs32R6rcQHX2H_12time_tracker9reporting6formatDNtB2_9FormatterEL_8from_str
FNDA:0,_RNvMs_NtNtCs32R6rcQHX2H_12time_tracker9reporting6formatNtB4_10FormatType8from_str
FNDA:0,_RNvNtNtCs32R6rcQHX2H_12time_tracker9reporting6format15format_duration
FNDA:0,_RNvNtNtCs32R6rcQHX2H_12time_tracker9reporting6format16create_formatter
FNDA:100,_RNvMNtNtCseOvZ2GYdjRc_12time_tracker9reporting6formatDNtB2_9FormatterEL_8from_str
FNDA:100,_RNvMs_NtNtCseOvZ2GYdjRc_12time_tracker9reporting6formatNtB4_10FormatType8from_str
FNDA:198,_RNvNtNtCseOvZ2GYdjRc_12time_tracker9reporting6format15format_duration
FNDA:100,_RNvNtNtCseOvZ2GYdjRc_12time_tracker9reporting6format16create_formatter
FNF:4
FNH:4
DA:11,100
DA:12,100
DA:13,99
DA:14,1
DA:16,100
DA:29,100
DA:30,100
DA:31,100
DA:32,100
DA:33,100
DA:35,0
DA:37,100
DA:41,100
DA:42,100
DA:43,100
DA:44,99
DA:45,0
DA:47,100
DA:50,198
DA:51,198
DA:52,198
DA:53,198
DA:54,198
BRF:0
BRH:0
LF:23
LH:21
end_of_record
SF:/Users/hans/dev/rust/time-tracker/src/reporting/format/text.rs
FN:33,_RNCNvMs_NtNtNtCs32R6rcQHX2H_12time_tracker9reporting6format4textNtB6_13TextFormatter22format_overview_report0Bc_
FN:135,_RNCNvNtNtNtCs32R6rcQHX2H_12time_tracker9reporting6format4text13format_header0B9_
FN:42,_RNvMs_NtNtNtCs32R6rcQHX2H_12time_tracker9reporting6format4textNtB4_13TextFormatter15format_overview
FN:69,_RNvMs_NtNtNtCs32R6rcQHX2H_12time_tracker9reporting6format4textNtB4_13TextFormatter19format_tasks_report
FN:83,_RNvMs_NtNtNtCs32R6rcQHX2H_12time_tracker9reporting6format4textNtB4_13TextFormatter20format_tasks_context
FN:32,_RNvMs_NtNtNtCs32R6rcQHX2H_12time_tracker9reporting6format4textNtB4_13TextFormatter22format_overview_report
FN:130,_RNvNtNtNtCs32R6rcQHX2H_12time_tracker9reporting6format4text13format_header
FN:23,_RNvNtNtNtCs32R6rcQHX2H_12time_tracker9reporting6format4text15format_interval
FN:112,_RNvNtNtNtCs32R6rcQHX2H_12time_tracker9reporting6format4text22format_time_statistics
FN:122,_RNvNtNtNtCs32R6rcQHX2H_12time_tracker9reporting6format4text25format_padded_description
FN:15,_RNvXNtNtNtCs32R6rcQHX2H_12time_tracker9reporting6format4textNtB2_13TextFormatterNtB4_9Formatter6format
FN:42,_RNvMs_NtNtNtCseOvZ2GYdjRc_12time_tracker9reporting6format4textNtB4_13TextFormatter15format_overview
FN:69,_RNvMs_NtNtNtCseOvZ2GYdjRc_12time_tracker9reporting6format4textNtB4_13TextFormatter19format_tasks_report
FN:83,_RNvMs_NtNtNtCseOvZ2GYdjRc_12time_tracker9reporting6format4textNtB4_13TextFormatter20format_tasks_context
FN:32,_RNvMs_NtNtNtCseOvZ2GYdjRc_12time_tracker9reporting6format4textNtB4_13TextFormatter22format_overview_report
FN:130,_RNvNtNtNtCseOvZ2GYdjRc_12time_tracker9reporting6format4text13format_header
FN:23,_RNvNtNtNtCseOvZ2GYdjRc_12time_tracker9reporting6format4text15format_interval
FN:112,_RNvNtNtNtCseOvZ2GYdjRc_12time_tracker9reporting6format4text22format_time_statistics
FN:122,_RNvNtNtNtCseOvZ2GYdjRc_12time_tracker9reporting6format4text25format_padded_description
FN:15,_RNvXNtNtNtCseOvZ2GYdjRc_12time_tracker9reporting6format4textNtB2_13TextFormatterNtB4_9Formatter6format
FN:33,_RNCNvMs_NtNtNtCseOvZ2GYdjRc_12time_tracker9reporting6format4textNtB6_13TextFormatter22format_overview_report0Bc_
FN:135,_RNCNvNtNtNtCseOvZ2GYdjRc_12time_tracker9reporting6format4text13format_header0B9_
FNDA:0,_RNCNvMs_NtNtNtCs32R6rcQHX2H_12time_tracker9reporting6format4textNtB6_13TextFormatter22format_overview_report0Bc_
FNDA:0,_RNCNvNtNtNtCs32R6rcQHX2H_12time_tracker9reporting6format4text13format_header0B9_
FNDA:0,_RNvMs_NtNtNtCs32R6rcQHX2H_12time_tracker9reporting6format4textNtB4_13TextFormatter15format_overview
FNDA:0,_RNvMs_NtNtNtCs32R6rcQHX2H_12time_tracker9reporting6format4textNtB4_13TextFormatter19format_tasks_report
FNDA:0,_RNvMs_NtNtNtCs32R6rcQHX2H_12time_tracker9reporting6format4textNtB4_13TextFormatter20format_tasks_context
FNDA:0,_RNvMs_NtNtNtCs32R6rcQHX2H_12time_tracker9reporting6format4textNtB4_13TextFormatter22format_overview_report
FNDA:0,_RNvNtNtNtCs32R6rcQHX2H_12time_tracker9reporting6format4text13format_header
FNDA:0,_RNvNtNtNtCs32R6rcQHX2H_12time_tracker9reporting6format4text15format_interval
FNDA:0,_RNvNtNtNtCs32R6rcQHX2H_12time_tracker9reporting6format4text22format_time_statistics
FNDA:0,_RNvNtNtNtCs32R6rcQHX2H_12time_tracker9reporting6format4text25format_padded_description
FNDA:0,_RNvXNtNtNtCs32R6rcQHX2H_12time_tracker9reporting6format4textNtB2_13TextFormatterNtB4_9Formatter6format
FNDA:80,_RNvMs_NtNtNtCseOvZ2GYdjRc_12time_tracker9reporting6format4textNtB4_13TextFormatter15format_overview
FNDA:11,_RNvMs_NtNtNtCseOvZ2GYdjRc_12time_tracker9reporting6format4textNtB4_13TextFormatter19format_tasks_report
FNDA:12,_RNvMs_NtNtNtCseOvZ2GYdjRc_12time_tracker9reporting6format4textNtB4_13TextFormatter20format_tasks_context
FNDA:80,_RNvMs_NtNtNtCseOvZ2GYdjRc_12time_tracker9reporting6format4textNtB4_13TextFormatter22format_overview_report
FNDA:80,_RNvNtNtNtCseOvZ2GYdjRc_12time_tracker9reporting6format4text13format_header
FNDA:92,_RNvNtNtNtCseOvZ2GYdjRc_12time_tracker9reporting6format4text15format_interval
FNDA:92,_RNvNtNtNtCseOvZ2GYdjRc_12time_tracker9reporting6format4text22format_time_statistics
FNDA:13,_RNvNtNtNtCseOvZ2GYdjRc_12time_tracker9reporting6format4text25format_padded_description
FNDA:91,_RNvXNtNtNtCseOvZ2GYdjRc_12time_tracker9reporting6format4textNtB2_13TextFormatterNtB4_9Formatter6format
FNDA:48,_RNCNvMs_NtNtNtCseOvZ2GYdjRc_12time_tracker9reporting6format4textNtB6_13TextFormatter22format_overview_report0Bc_
FNDA:48,_RNCNvNtNtNtCseOvZ2GYdjRc_12time_tracker9reporting6format4text13format_header0B9_
FNF:11
FNH:11
DA:15,91
DA:16,91
DA:17,11
DA:18,80
DA:20,91
DA:23,92
DA:24,92
DA:25,92
DA:26,92
DA:27,92
DA:28,92
DA:29,92
DA:32,80
DA:33,80
DA:34,80
DA:35,80
DA:36,80
DA:37,80
DA:38,80
DA:39,80
DA:40,80
DA:42,80
DA:43,80
DA:44,80
DA:45,80
DA:46,80
DA:47,80
DA:48,80
DA:49,80
DA:50,80
DA:51,80
DA:52,80
DA:53,80
DA:54,80
DA:55,80
DA:57,169
DA:58,89
DA:59,89
DA:60,89
DA:61,89
DA:62,89
DA:63,89
DA:64,89
DA:66,80
DA:67,80
DA:69,11
DA:70,11
DA:71,12
DA:72,12
DA:73,12
DA:74,12
DA:75,12
DA:76,12
DA:77,12
DA:78,12
DA:79,12
DA:80,11
DA:81,11
DA:83,12
DA:84,12
DA:85,12
DA:86,12
DA:87,12
DA:88,12
DA:89,12
DA:90,12
DA:91,12
DA:92,12
DA:93,12
DA:94,12
DA:95,12
DA:96,12
DA:97,12
DA:98,12
DA:99,25
DA:100,13
DA:101,13
DA:102,13
DA:103,13
DA:104,13
DA:105,13
DA:106,13
DA:108,12
DA:109,12
DA:112,92
DA:113,92
DA:114,92
DA:115,92
DA:116,92
DA:117,92
DA:118,92
DA:119,92
DA:120,92
DA:122,13
DA:123,13
DA:124,13
DA:125,13
DA:126,13
DA:127,13
DA:128,13
DA:130,80
DA:131,80
DA:132,80
DA:133,80
DA:134,80
DA:135,80
DA:136,80
DA:137,80
DA:138,80
DA:139,80
BRF:0
BRH:0
LF:112
LH:112
end_of_record
SF:/Users/hans/dev/rust/time-tracker/src/reporting/mod.rs
FN:31,_RNCNvNtNtNtCs32R6rcQHX2H_12time_tracker9reporting5tests12report_testss_29test_overview_report_ordering0B9_
FN:45,_RNvNtNtNtCs32R6rcQHX2H_12time_tracker9reporting5tests7helpers14default_period
FN:39,_RNvNtNtNtCs32R6rcQHX2H_12time_tracker9reporting5tests7helpers17create_test_entry
FN:18,_RNvNtNtNtCs32R6rcQHX2H_12time_tracker9reporting5tests12report_testss_29test_overview_report_ordering
FNDA:4,_RNCNvNtNtNtCs32R6rcQHX2H_12time_tracker9reporting5tests12report_testss_29test_overview_report_ordering0B9_
FNDA:1,_RNvNtNtNtCs32R6rcQHX2H_12time_tracker9reporting5tests7helpers14default_period
FNDA:4,_RNvNtNtNtCs32R6rcQHX2H_12time_tracker9reporting5tests7helpers17create_test_entry
FNDA:1,_RNvNtNtNtCs32R6rcQHX2H_12time_tracker9reporting5tests12report_testss_29test_overview_report_ordering
FNF:4
FNH:4
DA:18,1
DA:19,1
DA:20,1
DA:21,1
DA:22,1
DA:23,1
DA:24,1
DA:25,1
DA:26,1
DA:27,1
DA:28,1
DA:29,1
DA:30,1
DA:31,4
DA:32,1
DA:33,1
DA:39,4
DA:40,4
DA:41,4
DA:42,4
DA:43,4
DA:45,1
DA:46,1
DA:47,1
DA:48,1
DA:49,1
DA:50,1
BRF:0
BRH:0
LF:28
LH:28
end_of_record